
bomb:     file format elf64-x86-64


Disassembly of section .init:

0000000000400ad0 <_init>:
  400ad0:	48 83 ec 08          	sub    $0x8,%rsp
  400ad4:	48 8b 05 1d 35 20 00 	mov    0x20351d(%rip),%rax        # 603ff8 <_DYNAMIC+0x1d0>
  400adb:	48 85 c0             	test   %rax,%rax
  400ade:	74 05                	je     400ae5 <_init+0x15>
  400ae0:	e8 0b 01 00 00       	callq  400bf0 <__gmon_start__@plt>
  400ae5:	48 83 c4 08          	add    $0x8,%rsp
  400ae9:	c3                   	retq   

Disassembly of section .plt:

0000000000400af0 <getenv@plt-0x10>:
  400af0:	ff 35 12 35 20 00    	pushq  0x203512(%rip)        # 604008 <_GLOBAL_OFFSET_TABLE_+0x8>
  400af6:	ff 25 14 35 20 00    	jmpq   *0x203514(%rip)        # 604010 <_GLOBAL_OFFSET_TABLE_+0x10>
  400afc:	0f 1f 40 00          	nopl   0x0(%rax)

0000000000400b00 <getenv@plt>:
  400b00:	ff 25 12 35 20 00    	jmpq   *0x203512(%rip)        # 604018 <_GLOBAL_OFFSET_TABLE_+0x18>
  400b06:	68 00 00 00 00       	pushq  $0x0
  400b0b:	e9 e0 ff ff ff       	jmpq   400af0 <_init+0x20>

0000000000400b10 <strcasecmp@plt>:
  400b10:	ff 25 0a 35 20 00    	jmpq   *0x20350a(%rip)        # 604020 <_GLOBAL_OFFSET_TABLE_+0x20>
  400b16:	68 01 00 00 00       	pushq  $0x1
  400b1b:	e9 d0 ff ff ff       	jmpq   400af0 <_init+0x20>

0000000000400b20 <__errno_location@plt>:
  400b20:	ff 25 02 35 20 00    	jmpq   *0x203502(%rip)        # 604028 <_GLOBAL_OFFSET_TABLE_+0x28>
  400b26:	68 02 00 00 00       	pushq  $0x2
  400b2b:	e9 c0 ff ff ff       	jmpq   400af0 <_init+0x20>

0000000000400b30 <strcpy@plt>:
  400b30:	ff 25 fa 34 20 00    	jmpq   *0x2034fa(%rip)        # 604030 <_GLOBAL_OFFSET_TABLE_+0x30>
  400b36:	68 03 00 00 00       	pushq  $0x3
  400b3b:	e9 b0 ff ff ff       	jmpq   400af0 <_init+0x20>

0000000000400b40 <puts@plt>:
  400b40:	ff 25 f2 34 20 00    	jmpq   *0x2034f2(%rip)        # 604038 <_GLOBAL_OFFSET_TABLE_+0x38>
  400b46:	68 04 00 00 00       	pushq  $0x4
  400b4b:	e9 a0 ff ff ff       	jmpq   400af0 <_init+0x20>

0000000000400b50 <write@plt>:
  400b50:	ff 25 ea 34 20 00    	jmpq   *0x2034ea(%rip)        # 604040 <_GLOBAL_OFFSET_TABLE_+0x40>
  400b56:	68 05 00 00 00       	pushq  $0x5
  400b5b:	e9 90 ff ff ff       	jmpq   400af0 <_init+0x20>

0000000000400b60 <printf@plt>:
  400b60:	ff 25 e2 34 20 00    	jmpq   *0x2034e2(%rip)        # 604048 <_GLOBAL_OFFSET_TABLE_+0x48>
  400b66:	68 06 00 00 00       	pushq  $0x6
  400b6b:	e9 80 ff ff ff       	jmpq   400af0 <_init+0x20>

0000000000400b70 <alarm@plt>:
  400b70:	ff 25 da 34 20 00    	jmpq   *0x2034da(%rip)        # 604050 <_GLOBAL_OFFSET_TABLE_+0x50>
  400b76:	68 07 00 00 00       	pushq  $0x7
  400b7b:	e9 70 ff ff ff       	jmpq   400af0 <_init+0x20>

0000000000400b80 <close@plt>:
  400b80:	ff 25 d2 34 20 00    	jmpq   *0x2034d2(%rip)        # 604058 <_GLOBAL_OFFSET_TABLE_+0x58>
  400b86:	68 08 00 00 00       	pushq  $0x8
  400b8b:	e9 60 ff ff ff       	jmpq   400af0 <_init+0x20>

0000000000400b90 <read@plt>:
  400b90:	ff 25 ca 34 20 00    	jmpq   *0x2034ca(%rip)        # 604060 <_GLOBAL_OFFSET_TABLE_+0x60>
  400b96:	68 09 00 00 00       	pushq  $0x9
  400b9b:	e9 50 ff ff ff       	jmpq   400af0 <_init+0x20>

0000000000400ba0 <__libc_start_main@plt>:
  400ba0:	ff 25 c2 34 20 00    	jmpq   *0x2034c2(%rip)        # 604068 <_GLOBAL_OFFSET_TABLE_+0x68>
  400ba6:	68 0a 00 00 00       	pushq  $0xa
  400bab:	e9 40 ff ff ff       	jmpq   400af0 <_init+0x20>

0000000000400bb0 <fgets@plt>:
  400bb0:	ff 25 ba 34 20 00    	jmpq   *0x2034ba(%rip)        # 604070 <_GLOBAL_OFFSET_TABLE_+0x70>
  400bb6:	68 0b 00 00 00       	pushq  $0xb
  400bbb:	e9 30 ff ff ff       	jmpq   400af0 <_init+0x20>

0000000000400bc0 <signal@plt>:
  400bc0:	ff 25 b2 34 20 00    	jmpq   *0x2034b2(%rip)        # 604078 <_GLOBAL_OFFSET_TABLE_+0x78>
  400bc6:	68 0c 00 00 00       	pushq  $0xc
  400bcb:	e9 20 ff ff ff       	jmpq   400af0 <_init+0x20>

0000000000400bd0 <gethostbyname@plt>:
  400bd0:	ff 25 aa 34 20 00    	jmpq   *0x2034aa(%rip)        # 604080 <_GLOBAL_OFFSET_TABLE_+0x80>
  400bd6:	68 0d 00 00 00       	pushq  $0xd
  400bdb:	e9 10 ff ff ff       	jmpq   400af0 <_init+0x20>

0000000000400be0 <fprintf@plt>:
  400be0:	ff 25 a2 34 20 00    	jmpq   *0x2034a2(%rip)        # 604088 <_GLOBAL_OFFSET_TABLE_+0x88>
  400be6:	68 0e 00 00 00       	pushq  $0xe
  400beb:	e9 00 ff ff ff       	jmpq   400af0 <_init+0x20>

0000000000400bf0 <__gmon_start__@plt>:
  400bf0:	ff 25 9a 34 20 00    	jmpq   *0x20349a(%rip)        # 604090 <_GLOBAL_OFFSET_TABLE_+0x90>
  400bf6:	68 0f 00 00 00       	pushq  $0xf
  400bfb:	e9 f0 fe ff ff       	jmpq   400af0 <_init+0x20>

0000000000400c00 <strtol@plt>:
  400c00:	ff 25 92 34 20 00    	jmpq   *0x203492(%rip)        # 604098 <_GLOBAL_OFFSET_TABLE_+0x98>
  400c06:	68 10 00 00 00       	pushq  $0x10
  400c0b:	e9 e0 fe ff ff       	jmpq   400af0 <_init+0x20>

0000000000400c10 <memcpy@plt>:
  400c10:	ff 25 8a 34 20 00    	jmpq   *0x20348a(%rip)        # 6040a0 <_GLOBAL_OFFSET_TABLE_+0xa0>
  400c16:	68 11 00 00 00       	pushq  $0x11
  400c1b:	e9 d0 fe ff ff       	jmpq   400af0 <_init+0x20>

0000000000400c20 <fflush@plt>:
  400c20:	ff 25 82 34 20 00    	jmpq   *0x203482(%rip)        # 6040a8 <_GLOBAL_OFFSET_TABLE_+0xa8>
  400c26:	68 12 00 00 00       	pushq  $0x12
  400c2b:	e9 c0 fe ff ff       	jmpq   400af0 <_init+0x20>

0000000000400c30 <__isoc99_sscanf@plt>:
  400c30:	ff 25 7a 34 20 00    	jmpq   *0x20347a(%rip)        # 6040b0 <_GLOBAL_OFFSET_TABLE_+0xb0>
  400c36:	68 13 00 00 00       	pushq  $0x13
  400c3b:	e9 b0 fe ff ff       	jmpq   400af0 <_init+0x20>

0000000000400c40 <bcopy@plt>:
  400c40:	ff 25 72 34 20 00    	jmpq   *0x203472(%rip)        # 6040b8 <_GLOBAL_OFFSET_TABLE_+0xb8>
  400c46:	68 14 00 00 00       	pushq  $0x14
  400c4b:	e9 a0 fe ff ff       	jmpq   400af0 <_init+0x20>

0000000000400c50 <fopen@plt>:
  400c50:	ff 25 6a 34 20 00    	jmpq   *0x20346a(%rip)        # 6040c0 <_GLOBAL_OFFSET_TABLE_+0xc0>
  400c56:	68 15 00 00 00       	pushq  $0x15
  400c5b:	e9 90 fe ff ff       	jmpq   400af0 <_init+0x20>

0000000000400c60 <gethostname@plt>:
  400c60:	ff 25 62 34 20 00    	jmpq   *0x203462(%rip)        # 6040c8 <_GLOBAL_OFFSET_TABLE_+0xc8>
  400c66:	68 16 00 00 00       	pushq  $0x16
  400c6b:	e9 80 fe ff ff       	jmpq   400af0 <_init+0x20>

0000000000400c70 <sprintf@plt>:
  400c70:	ff 25 5a 34 20 00    	jmpq   *0x20345a(%rip)        # 6040d0 <_GLOBAL_OFFSET_TABLE_+0xd0>
  400c76:	68 17 00 00 00       	pushq  $0x17
  400c7b:	e9 70 fe ff ff       	jmpq   400af0 <_init+0x20>

0000000000400c80 <exit@plt>:
  400c80:	ff 25 52 34 20 00    	jmpq   *0x203452(%rip)        # 6040d8 <_GLOBAL_OFFSET_TABLE_+0xd8>
  400c86:	68 18 00 00 00       	pushq  $0x18
  400c8b:	e9 60 fe ff ff       	jmpq   400af0 <_init+0x20>

0000000000400c90 <connect@plt>:
  400c90:	ff 25 4a 34 20 00    	jmpq   *0x20344a(%rip)        # 6040e0 <_GLOBAL_OFFSET_TABLE_+0xe0>
  400c96:	68 19 00 00 00       	pushq  $0x19
  400c9b:	e9 50 fe ff ff       	jmpq   400af0 <_init+0x20>

0000000000400ca0 <sleep@plt>:
  400ca0:	ff 25 42 34 20 00    	jmpq   *0x203442(%rip)        # 6040e8 <_GLOBAL_OFFSET_TABLE_+0xe8>
  400ca6:	68 1a 00 00 00       	pushq  $0x1a
  400cab:	e9 40 fe ff ff       	jmpq   400af0 <_init+0x20>

0000000000400cb0 <__ctype_b_loc@plt>:
  400cb0:	ff 25 3a 34 20 00    	jmpq   *0x20343a(%rip)        # 6040f0 <_GLOBAL_OFFSET_TABLE_+0xf0>
  400cb6:	68 1b 00 00 00       	pushq  $0x1b
  400cbb:	e9 30 fe ff ff       	jmpq   400af0 <_init+0x20>

0000000000400cc0 <socket@plt>:
  400cc0:	ff 25 32 34 20 00    	jmpq   *0x203432(%rip)        # 6040f8 <_GLOBAL_OFFSET_TABLE_+0xf8>
  400cc6:	68 1c 00 00 00       	pushq  $0x1c
  400ccb:	e9 20 fe ff ff       	jmpq   400af0 <_init+0x20>

Disassembly of section .text:

0000000000400cd0 <_start>:
  400cd0:	31 ed                	xor    %ebp,%ebp
  400cd2:	49 89 d1             	mov    %rdx,%r9
  400cd5:	5e                   	pop    %rsi
  400cd6:	48 89 e2             	mov    %rsp,%rdx
  400cd9:	48 83 e4 f0          	and    $0xfffffffffffffff0,%rsp
  400cdd:	50                   	push   %rax
  400cde:	54                   	push   %rsp
  400cdf:	49 c7 c0 d0 23 40 00 	mov    $0x4023d0,%r8
  400ce6:	48 c7 c1 60 23 40 00 	mov    $0x402360,%rcx
  400ced:	48 c7 c7 c0 0d 40 00 	mov    $0x400dc0,%rdi
  400cf4:	e8 a7 fe ff ff       	callq  400ba0 <__libc_start_main@plt>
  400cf9:	f4                   	hlt    
  400cfa:	66 90                	xchg   %ax,%ax
  400cfc:	0f 1f 40 00          	nopl   0x0(%rax)

0000000000400d00 <deregister_tm_clones>:
  400d00:	b8 87 4b 60 00       	mov    $0x604b87,%eax
  400d05:	55                   	push   %rbp
  400d06:	48 2d 80 4b 60 00    	sub    $0x604b80,%rax
  400d0c:	48 83 f8 0e          	cmp    $0xe,%rax
  400d10:	48 89 e5             	mov    %rsp,%rbp
  400d13:	77 02                	ja     400d17 <deregister_tm_clones+0x17>
  400d15:	5d                   	pop    %rbp
  400d16:	c3                   	retq   
  400d17:	b8 00 00 00 00       	mov    $0x0,%eax
  400d1c:	48 85 c0             	test   %rax,%rax
  400d1f:	74 f4                	je     400d15 <deregister_tm_clones+0x15>
  400d21:	5d                   	pop    %rbp
  400d22:	bf 80 4b 60 00       	mov    $0x604b80,%edi
  400d27:	ff e0                	jmpq   *%rax
  400d29:	0f 1f 80 00 00 00 00 	nopl   0x0(%rax)

0000000000400d30 <register_tm_clones>:
  400d30:	b8 80 4b 60 00       	mov    $0x604b80,%eax
  400d35:	55                   	push   %rbp
  400d36:	48 2d 80 4b 60 00    	sub    $0x604b80,%rax
  400d3c:	48 c1 f8 03          	sar    $0x3,%rax
  400d40:	48 89 e5             	mov    %rsp,%rbp
  400d43:	48 89 c2             	mov    %rax,%rdx
  400d46:	48 c1 ea 3f          	shr    $0x3f,%rdx
  400d4a:	48 01 d0             	add    %rdx,%rax
  400d4d:	48 d1 f8             	sar    %rax
  400d50:	75 02                	jne    400d54 <register_tm_clones+0x24>
  400d52:	5d                   	pop    %rbp
  400d53:	c3                   	retq   
  400d54:	ba 00 00 00 00       	mov    $0x0,%edx
  400d59:	48 85 d2             	test   %rdx,%rdx
  400d5c:	74 f4                	je     400d52 <register_tm_clones+0x22>
  400d5e:	5d                   	pop    %rbp
  400d5f:	48 89 c6             	mov    %rax,%rsi
  400d62:	bf 80 4b 60 00       	mov    $0x604b80,%edi
  400d67:	ff e2                	jmpq   *%rdx
  400d69:	0f 1f 80 00 00 00 00 	nopl   0x0(%rax)

0000000000400d70 <__do_global_dtors_aux>:
  400d70:	80 3d 21 3e 20 00 00 	cmpb   $0x0,0x203e21(%rip)        # 604b98 <completed.6364>
  400d77:	75 11                	jne    400d8a <__do_global_dtors_aux+0x1a>
  400d79:	55                   	push   %rbp
  400d7a:	48 89 e5             	mov    %rsp,%rbp
  400d7d:	e8 7e ff ff ff       	callq  400d00 <deregister_tm_clones>
  400d82:	5d                   	pop    %rbp
  400d83:	c6 05 0e 3e 20 00 01 	movb   $0x1,0x203e0e(%rip)        # 604b98 <completed.6364>
  400d8a:	f3 c3                	repz retq 
  400d8c:	0f 1f 40 00          	nopl   0x0(%rax)

0000000000400d90 <frame_dummy>:
  400d90:	48 83 3d 88 30 20 00 	cmpq   $0x0,0x203088(%rip)        # 603e20 <__JCR_END__>
  400d97:	00 
  400d98:	74 1e                	je     400db8 <frame_dummy+0x28>
  400d9a:	b8 00 00 00 00       	mov    $0x0,%eax
  400d9f:	48 85 c0             	test   %rax,%rax
  400da2:	74 14                	je     400db8 <frame_dummy+0x28>
  400da4:	55                   	push   %rbp
  400da5:	bf 20 3e 60 00       	mov    $0x603e20,%edi
  400daa:	48 89 e5             	mov    %rsp,%rbp
  400dad:	ff d0                	callq  *%rax
  400daf:	5d                   	pop    %rbp
  400db0:	e9 7b ff ff ff       	jmpq   400d30 <register_tm_clones>
  400db5:	0f 1f 00             	nopl   (%rax)
  400db8:	e9 73 ff ff ff       	jmpq   400d30 <register_tm_clones>
  400dbd:	0f 1f 00             	nopl   (%rax)

0000000000400dc0 <main>:
  400dc0:	53                   	push   %rbx
  400dc1:	83 ff 01             	cmp    $0x1,%edi
  400dc4:	75 10                	jne    400dd6 <main+0x16>
  400dc6:	48 8b 05 bb 3d 20 00 	mov    0x203dbb(%rip),%rax        # 604b88 <stdin@@GLIBC_2.2.5>
  400dcd:	48 89 05 cc 3d 20 00 	mov    %rax,0x203dcc(%rip)        # 604ba0 <infile>
  400dd4:	eb 59                	jmp    400e2f <main+0x6f>
  400dd6:	48 89 f3             	mov    %rsi,%rbx
  400dd9:	83 ff 02             	cmp    $0x2,%edi
  400ddc:	75 35                	jne    400e13 <main+0x53>
  400dde:	48 8b 7e 08          	mov    0x8(%rsi),%rdi
  400de2:	be f0 23 40 00       	mov    $0x4023f0,%esi
  400de7:	e8 64 fe ff ff       	callq  400c50 <fopen@plt>
  400dec:	48 89 05 ad 3d 20 00 	mov    %rax,0x203dad(%rip)        # 604ba0 <infile>
  400df3:	48 85 c0             	test   %rax,%rax
  400df6:	75 37                	jne    400e2f <main+0x6f>
  400df8:	48 8b 53 08          	mov    0x8(%rbx),%rdx
  400dfc:	48 8b 33             	mov    (%rbx),%rsi
  400dff:	bf f2 23 40 00       	mov    $0x4023f2,%edi
  400e04:	e8 57 fd ff ff       	callq  400b60 <printf@plt>
  400e09:	bf 08 00 00 00       	mov    $0x8,%edi
  400e0e:	e8 6d fe ff ff       	callq  400c80 <exit@plt>
  400e13:	48 8b 36             	mov    (%rsi),%rsi
  400e16:	bf 0f 24 40 00       	mov    $0x40240f,%edi
  400e1b:	b8 00 00 00 00       	mov    $0x0,%eax
  400e20:	e8 3b fd ff ff       	callq  400b60 <printf@plt>
  400e25:	bf 08 00 00 00       	mov    $0x8,%edi
  400e2a:	e8 51 fe ff ff       	callq  400c80 <exit@plt>
  400e2f:	e8 e3 05 00 00       	callq  401417 <initialize_bomb>
  400e34:	bf 78 24 40 00       	mov    $0x402478,%edi
  400e39:	e8 02 fd ff ff       	callq  400b40 <puts@plt>
  400e3e:	bf b8 24 40 00       	mov    $0x4024b8,%edi
  400e43:	e8 f8 fc ff ff       	callq  400b40 <puts@plt>
  400e48:	e8 3a 08 00 00       	callq  401687 <read_line>
  400e4d:	48 89 c7             	mov    %rax,%rdi
  400e50:	e8 9b 00 00 00       	callq  400ef0 <phase_1>
  400e55:	e8 53 09 00 00       	callq  4017ad <phase_defused>
  400e5a:	bf e8 24 40 00       	mov    $0x4024e8,%edi
  400e5f:	e8 dc fc ff ff       	callq  400b40 <puts@plt>
  400e64:	e8 1e 08 00 00       	callq  401687 <read_line>
  400e69:	48 89 c7             	mov    %rax,%rdi
  400e6c:	e8 9b 00 00 00       	callq  400f0c <phase_2>
  400e71:	e8 37 09 00 00       	callq  4017ad <phase_defused>
  400e76:	bf 29 24 40 00       	mov    $0x402429,%edi
  400e7b:	e8 c0 fc ff ff       	callq  400b40 <puts@plt>
  400e80:	e8 02 08 00 00       	callq  401687 <read_line>
  400e85:	48 89 c7             	mov    %rax,%rdi
  400e88:	e8 ce 00 00 00       	callq  400f5b <phase_3>
  400e8d:	e8 1b 09 00 00       	callq  4017ad <phase_defused>
  400e92:	bf 47 24 40 00       	mov    $0x402447,%edi
  400e97:	e8 a4 fc ff ff       	callq  400b40 <puts@plt>
  400e9c:	e8 e6 07 00 00       	callq  401687 <read_line>
  400ea1:	48 89 c7             	mov    %rax,%rdi
  400ea4:	e8 30 02 00 00       	callq  4010d9 <phase_4>
  400ea9:	e8 ff 08 00 00       	callq  4017ad <phase_defused>
  400eae:	bf 18 25 40 00       	mov    $0x402518,%edi
  400eb3:	e8 88 fc ff ff       	callq  400b40 <puts@plt>
  400eb8:	e8 ca 07 00 00       	callq  401687 <read_line>
  400ebd:	48 89 c7             	mov    %rax,%rdi
  400ec0:	e8 65 02 00 00       	callq  40112a <phase_5>
  400ec5:	e8 e3 08 00 00       	callq  4017ad <phase_defused>
  400eca:	bf 56 24 40 00       	mov    $0x402456,%edi
  400ecf:	e8 6c fc ff ff       	callq  400b40 <puts@plt>
  400ed4:	e8 ae 07 00 00       	callq  401687 <read_line>
  400ed9:	48 89 c7             	mov    %rax,%rdi
  400edc:	e8 b6 02 00 00       	callq  401197 <phase_6>
  400ee1:	e8 c7 08 00 00       	callq  4017ad <phase_defused>
  400ee6:	b8 00 00 00 00       	mov    $0x0,%eax
  400eeb:	5b                   	pop    %rbx
  400eec:	c3                   	retq   
  400eed:	0f 1f 00             	nopl   (%rax)

0000000000400ef0 <phase_1>:
  400ef0:	48 83 ec 08          	sub    $0x8,%rsp
  400ef4:	be 40 25 40 00       	mov    $0x402540,%esi
  400ef9:	e8 b0 04 00 00       	callq  4013ae <strings_not_equal>
  400efe:	85 c0                	test   %eax,%eax
  400f00:	74 05                	je     400f07 <phase_1+0x17>
  400f02:	e8 08 07 00 00       	callq  40160f <explode_bomb>
  400f07:	48 83 c4 08          	add    $0x8,%rsp
  400f0b:	c3                   	retq   

0000000000400f0c <phase_2>:
  400f0c:	55                   	push   %rbp
  400f0d:	53                   	push   %rbx
  400f0e:	48 83 ec 28          	sub    $0x28,%rsp
  400f12:	48 89 e6             	mov    %rsp,%rsi
  400f15:	e8 2b 07 00 00       	callq  401645 <read_six_numbers>
  400f1a:	83 3c 24 00          	cmpl   $0x0,(%rsp)
  400f1e:	75 07                	jne    400f27 <phase_2+0x1b>
  400f20:	83 7c 24 04 01       	cmpl   $0x1,0x4(%rsp)
  400f25:	74 21                	je     400f48 <phase_2+0x3c>
  400f27:	e8 e3 06 00 00       	callq  40160f <explode_bomb>
  400f2c:	eb 1a                	jmp    400f48 <phase_2+0x3c>
  400f2e:	8b 43 f8             	mov    -0x8(%rbx),%eax
  400f31:	03 43 fc             	add    -0x4(%rbx),%eax
  400f34:	39 03                	cmp    %eax,(%rbx)
  400f36:	74 05                	je     400f3d <phase_2+0x31>
  400f38:	e8 d2 06 00 00       	callq  40160f <explode_bomb>
  400f3d:	48 83 c3 04          	add    $0x4,%rbx
  400f41:	48 39 eb             	cmp    %rbp,%rbx
  400f44:	75 e8                	jne    400f2e <phase_2+0x22>
  400f46:	eb 0c                	jmp    400f54 <phase_2+0x48>
  400f48:	48 8d 5c 24 08       	lea    0x8(%rsp),%rbx
  400f4d:	48 8d 6c 24 18       	lea    0x18(%rsp),%rbp
  400f52:	eb da                	jmp    400f2e <phase_2+0x22>
  400f54:	48 83 c4 28          	add    $0x28,%rsp
  400f58:	5b                   	pop    %rbx
  400f59:	5d                   	pop    %rbp
  400f5a:	c3                   	retq   

0000000000400f5b <phase_3>:
  400f5b:	48 83 ec 18          	sub    $0x18,%rsp
  400f5f:	4c 8d 44 24 08       	lea    0x8(%rsp),%r8
  400f64:	48 8d 4c 24 07       	lea    0x7(%rsp),%rcx
  400f69:	48 8d 54 24 0c       	lea    0xc(%rsp),%rdx
  400f6e:	be 96 25 40 00       	mov    $0x402596,%esi
  400f73:	b8 00 00 00 00       	mov    $0x0,%eax
  400f78:	e8 b3 fc ff ff       	callq  400c30 <__isoc99_sscanf@plt>
  400f7d:	83 f8 02             	cmp    $0x2,%eax
  400f80:	7f 05                	jg     400f87 <phase_3+0x2c>
  400f82:	e8 88 06 00 00       	callq  40160f <explode_bomb>
  400f87:	83 7c 24 0c 07       	cmpl   $0x7,0xc(%rsp)
  400f8c:	0f 87 f5 00 00 00    	ja     401087 <phase_3+0x12c>
  400f92:	8b 44 24 0c          	mov    0xc(%rsp),%eax
  400f96:	ff 24 c5 a0 25 40 00 	jmpq   *0x4025a0(,%rax,8)
  400f9d:	b8 73 00 00 00       	mov    $0x73,%eax
  400fa2:	81 7c 24 08 02 03 00 	cmpl   $0x302,0x8(%rsp)
  400fa9:	00 
  400faa:	0f 84 e1 00 00 00    	je     401091 <phase_3+0x136>
  400fb0:	e8 5a 06 00 00       	callq  40160f <explode_bomb>
  400fb5:	b8 73 00 00 00       	mov    $0x73,%eax
  400fba:	e9 d2 00 00 00       	jmpq   401091 <phase_3+0x136>
  400fbf:	b8 74 00 00 00       	mov    $0x74,%eax
  400fc4:	81 7c 24 08 96 02 00 	cmpl   $0x296,0x8(%rsp)
  400fcb:	00 
  400fcc:	0f 84 bf 00 00 00    	je     401091 <phase_3+0x136>
  400fd2:	e8 38 06 00 00       	callq  40160f <explode_bomb>
  400fd7:	b8 74 00 00 00       	mov    $0x74,%eax
  400fdc:	e9 b0 00 00 00       	jmpq   401091 <phase_3+0x136>
  400fe1:	b8 65 00 00 00       	mov    $0x65,%eax
  400fe6:	81 7c 24 08 4c 01 00 	cmpl   $0x14c,0x8(%rsp)
  400fed:	00 
  400fee:	0f 84 9d 00 00 00    	je     401091 <phase_3+0x136>
  400ff4:	e8 16 06 00 00       	callq  40160f <explode_bomb>
  400ff9:	b8 65 00 00 00       	mov    $0x65,%eax
  400ffe:	e9 8e 00 00 00       	jmpq   401091 <phase_3+0x136>
  401003:	b8 6c 00 00 00       	mov    $0x6c,%eax
  401008:	81 7c 24 08 9f 02 00 	cmpl   $0x29f,0x8(%rsp)
  40100f:	00 
  401010:	74 7f                	je     401091 <phase_3+0x136>
  401012:	e8 f8 05 00 00       	callq  40160f <explode_bomb>
  401017:	b8 6c 00 00 00       	mov    $0x6c,%eax
  40101c:	eb 73                	jmp    401091 <phase_3+0x136>
  40101e:	b8 6b 00 00 00       	mov    $0x6b,%eax
  401023:	81 7c 24 08 4a 01 00 	cmpl   $0x14a,0x8(%rsp)
  40102a:	00 
  40102b:	74 64                	je     401091 <phase_3+0x136>
  40102d:	e8 dd 05 00 00       	callq  40160f <explode_bomb>
  401032:	b8 6b 00 00 00       	mov    $0x6b,%eax
  401037:	eb 58                	jmp    401091 <phase_3+0x136>
  401039:	b8 70 00 00 00       	mov    $0x70,%eax
  40103e:	81 7c 24 08 18 01 00 	cmpl   $0x118,0x8(%rsp)
  401045:	00 
  401046:	74 49                	je     401091 <phase_3+0x136>
  401048:	e8 c2 05 00 00       	callq  40160f <explode_bomb>
  40104d:	b8 70 00 00 00       	mov    $0x70,%eax
  401052:	eb 3d                	jmp    401091 <phase_3+0x136>
  401054:	b8 79 00 00 00       	mov    $0x79,%eax
  401059:	83 7c 24 08 5f       	cmpl   $0x5f,0x8(%rsp)
  40105e:	74 31                	je     401091 <phase_3+0x136>
  401060:	e8 aa 05 00 00       	callq  40160f <explode_bomb>
  401065:	b8 79 00 00 00       	mov    $0x79,%eax
  40106a:	eb 25                	jmp    401091 <phase_3+0x136>
  40106c:	b8 74 00 00 00       	mov    $0x74,%eax
  401071:	81 7c 24 08 44 01 00 	cmpl   $0x144,0x8(%rsp)
  401078:	00 
  401079:	74 16                	je     401091 <phase_3+0x136>
  40107b:	e8 8f 05 00 00       	callq  40160f <explode_bomb>
  401080:	b8 74 00 00 00       	mov    $0x74,%eax
  401085:	eb 0a                	jmp    401091 <phase_3+0x136>
  401087:	e8 83 05 00 00       	callq  40160f <explode_bomb>
  40108c:	b8 61 00 00 00       	mov    $0x61,%eax
  401091:	3a 44 24 07          	cmp    0x7(%rsp),%al
  401095:	74 05                	je     40109c <phase_3+0x141>
  401097:	e8 73 05 00 00       	callq  40160f <explode_bomb>
  40109c:	48 83 c4 18          	add    $0x18,%rsp
  4010a0:	c3                   	retq   

00000000004010a1 <func4>:
  4010a1:	41 54                	push   %r12
  4010a3:	55                   	push   %rbp
  4010a4:	53                   	push   %rbx
  4010a5:	89 fb                	mov    %edi,%ebx
  4010a7:	85 ff                	test   %edi,%edi
  4010a9:	7e 24                	jle    4010cf <func4+0x2e>
  4010ab:	89 f5                	mov    %esi,%ebp
  4010ad:	89 f0                	mov    %esi,%eax
  4010af:	83 ff 01             	cmp    $0x1,%edi
  4010b2:	74 20                	je     4010d4 <func4+0x33>
  4010b4:	8d 7f ff             	lea    -0x1(%rdi),%edi
  4010b7:	e8 e5 ff ff ff       	callq  4010a1 <func4>
  4010bc:	44 8d 24 28          	lea    (%rax,%rbp,1),%r12d
  4010c0:	8d 7b fe             	lea    -0x2(%rbx),%edi
  4010c3:	89 ee                	mov    %ebp,%esi
  4010c5:	e8 d7 ff ff ff       	callq  4010a1 <func4>
  4010ca:	44 01 e0             	add    %r12d,%eax
  4010cd:	eb 05                	jmp    4010d4 <func4+0x33>
  4010cf:	b8 00 00 00 00       	mov    $0x0,%eax
  4010d4:	5b                   	pop    %rbx
  4010d5:	5d                   	pop    %rbp
  4010d6:	41 5c                	pop    %r12
  4010d8:	c3                   	retq   

00000000004010d9 <phase_4>:
  4010d9:	48 83 ec 18          	sub    $0x18,%rsp
  4010dd:	48 8d 4c 24 0c       	lea    0xc(%rsp),%rcx
  4010e2:	48 8d 54 24 08       	lea    0x8(%rsp),%rdx
  4010e7:	be 6d 28 40 00       	mov    $0x40286d,%esi
  4010ec:	b8 00 00 00 00       	mov    $0x0,%eax
  4010f1:	e8 3a fb ff ff       	callq  400c30 <__isoc99_sscanf@plt>
  4010f6:	83 f8 02             	cmp    $0x2,%eax
  4010f9:	75 0c                	jne    401107 <phase_4+0x2e>
  4010fb:	8b 44 24 0c          	mov    0xc(%rsp),%eax
  4010ff:	83 e8 02             	sub    $0x2,%eax
  401102:	83 f8 02             	cmp    $0x2,%eax
  401105:	76 05                	jbe    40110c <phase_4+0x33>
  401107:	e8 03 05 00 00       	callq  40160f <explode_bomb>
  40110c:	8b 74 24 0c          	mov    0xc(%rsp),%esi
  401110:	bf 05 00 00 00       	mov    $0x5,%edi
  401115:	e8 87 ff ff ff       	callq  4010a1 <func4>
  40111a:	3b 44 24 08          	cmp    0x8(%rsp),%eax
  40111e:	74 05                	je     401125 <phase_4+0x4c>
  401120:	e8 ea 04 00 00       	callq  40160f <explode_bomb>
  401125:	48 83 c4 18          	add    $0x18,%rsp
  401129:	c3                   	retq   

000000000040112a <phase_5>:
  40112a:	48 83 ec 18          	sub    $0x18,%rsp
  40112e:	48 8d 4c 24 08       	lea    0x8(%rsp),%rcx
  401133:	48 8d 54 24 0c       	lea    0xc(%rsp),%rdx
  401138:	be 6d 28 40 00       	mov    $0x40286d,%esi
  40113d:	b8 00 00 00 00       	mov    $0x0,%eax
  401142:	e8 e9 fa ff ff       	callq  400c30 <__isoc99_sscanf@plt>
  401147:	83 f8 01             	cmp    $0x1,%eax
  40114a:	7f 05                	jg     401151 <phase_5+0x27>
  40114c:	e8 be 04 00 00       	callq  40160f <explode_bomb>
  401151:	8b 44 24 0c          	mov    0xc(%rsp),%eax
  401155:	83 e0 0f             	and    $0xf,%eax
  401158:	89 44 24 0c          	mov    %eax,0xc(%rsp)
  40115c:	83 f8 0f             	cmp    $0xf,%eax
  40115f:	74 2c                	je     40118d <phase_5+0x63>
  401161:	b9 00 00 00 00       	mov    $0x0,%ecx
  401166:	ba 00 00 00 00       	mov    $0x0,%edx
  40116b:	83 c2 01             	add    $0x1,%edx
  40116e:	48 98                	cltq   
  401170:	8b 04 85 e0 25 40 00 	mov    0x4025e0(,%rax,4),%eax
  401177:	01 c1                	add    %eax,%ecx
  401179:	83 f8 0f             	cmp    $0xf,%eax
  40117c:	75 ed                	jne    40116b <phase_5+0x41>
  40117e:	89 44 24 0c          	mov    %eax,0xc(%rsp)
  401182:	83 fa 0f             	cmp    $0xf,%edx
  401185:	75 06                	jne    40118d <phase_5+0x63>
  401187:	3b 4c 24 08          	cmp    0x8(%rsp),%ecx
  40118b:	74 05                	je     401192 <phase_5+0x68>
  40118d:	e8 7d 04 00 00       	callq  40160f <explode_bomb>
  401192:	48 83 c4 18          	add    $0x18,%rsp
  401196:	c3                   	retq   

0000000000401197 <phase_6>:
  401197:	41 55                	push   %r13
  401199:	41 54                	push   %r12
  40119b:	55                   	push   %rbp
  40119c:	53                   	push   %rbx
  40119d:	48 83 ec 58          	sub    $0x58,%rsp
  4011a1:	48 8d 74 24 30       	lea    0x30(%rsp),%rsi				--make space on stack for my inputs
  4011a6:	e8 9a 04 00 00       	callq  401645 <read_six_numbers>		--reads my inputs
  4011ab:	4c 8d 6c 24 30       	lea    0x30(%rsp),%r13				--($rsp+0x30) is my first input
  4011b0:	41 bc 00 00 00 00    	mov    $0x0,%r12d				--
  4011b6:	4c 89 ed             	mov    %r13,%rbp --------------------|				--rbp gets my first input
  4011b9:	41 8b 45 00          	mov    0x0(%r13),%eax		     |		--eax gets first inputs
  4011bd:	83 e8 01             	sub    $0x1,%eax		     |		
  4011c0:	83 f8 05             	cmp    $0x5,%eax		     |
  4011c3:	76 05                	jbe    4011ca <phase_6+0x33>	     |		--largest input better be 6 or less
  4011c5:	e8 45 04 00 00       	callq  40160f <explode_bomb>	     |
  4011ca:	41 83 c4 01          	add    $0x1,%r12d		     |           --r12d is index to first loop
  4011ce:	41 83 fc 06          	cmp    $0x6,%r12d                    |
  4011d2:	75 07                	jne    4011db <phase_6+0x44>	     |		--once the loops are done, go to next part
  4011d4:	be 00 00 00 00       	mov    $0x0,%esi		     |		--END FIRST LOOP, esi (future index) gets 0
  4011d9:	eb 42                	jmp    40121d <phase_6+0x86>	     |		--END OF BOTH LOOPS
  4011db:	44 89 e3             	mov    %r12d,%ebx	-------	|    |		--ebx gets current index
  4011de:	48 63 c3             	movslq %ebx,%rax		|    |		--so does rax?
  4011e1:	8b 44 84 30          	mov    0x30(%rsp,%rax,4),%eax	|    |		--next input value goes to eax
  4011e5:	39 45 00             	cmp    %eax,0x0(%rbp)		|    |		--compare with first input
  4011e8:	75 05                	jne    4011ef <phase_6+0x58>	|    |		--no repeat nums
  4011ea:	e8 20 04 00 00       	callq  40160f <explode_bomb>	|    |		
  4011ef:	83 c3 01             	add    $0x1,%ebx		|    |		--increase index
  4011f2:	83 fb 05             	cmp    $0x5,%ebx		|    |		
  4011f5:	7e e7                	jle    4011de <phase_6+0x47>---	|    |		--loop through all inputs to detect duplicates
  4011f7:	49 83 c5 04          	add    $0x4,%r13		     |		--r13 serves as 4-byte index multiplier for inputs
  4011fb:	eb b9                	jmp    4011b6 <phase_6+0x1f> --------|
  4011fd:	48 8b 52 08          	mov    0x8(%rdx),%rdx----------|
  401201:	83 c0 01             	add    $0x1,%eax	       |	
  401204:	39 c8                	cmp    %ecx,%eax 	       |
  401206:	75 f5                	jne    4011fd <phase_6+0x66>-- |
  401208:	eb 05                	jmp    40120f <phase_6+0x78>
  40120a:	ba 00 43 60 00       	mov    $0x604300,%edx				--Addr of Node 1 goes in edx
  40120f:	48 89 14 74          	mov    %rdx,(%rsp,%rsi,2)			--Existing pointers go on stack above my inputs
  401213:	48 83 c6 04          	add    $0x4,%rsi			 |	
  401217:	48 83 fe 18          	cmp    $0x18,%rsi			 |	--rsi gets 6 values (index)
  40121b:	74 15                	je     401232 <phase_6+0x9b>		 |	--END OF SECOND LOOP, pointers on stack
  40121d:	8b 4c 34 30          	mov    0x30(%rsp,%rsi,1),%ecx----------- | 	--Loop over inputs
  401221:	83 f9 01             	cmp    $0x1,%ecx				--ecx is current input i think?
  401224:	7e e4                	jle    40120a <phase_6+0x73>------
  401226:	b8 01 00 00 00       	mov    $0x1,%eax	         |
  40122b:	ba 00 43 60 00       	mov    $0x604300,%edx		 |		--Move table to edx again?
  401230:	eb cb                	jmp    4011fd <phase_6+0x66>	 |
  401232:	48 8b 1c 24          	mov    (%rsp),%rbx				--
  401236:	48 8d 44 24 08       	lea    0x8(%rsp),%rax
  40123b:	48 8d 74 24 30       	lea    0x30(%rsp),%rsi
  401240:	48 89 d9             	mov    %rbx,%rcx
  401243:	48 8b 10             	mov    (%rax),%rdx
  401246:	48 89 51 08          	mov    %rdx,0x8(%rcx)
  40124a:	48 83 c0 08          	add    $0x8,%rax
  40124e:	48 39 f0             	cmp    %rsi,%rax
  401251:	74 05                	je     401258 <phase_6+0xc1>
  401253:	48 89 d1             	mov    %rdx,%rcx
  401256:	eb eb                	jmp    401243 <phase_6+0xac>
  401258:	48 c7 42 08 00 00 00 	movq   $0x0,0x8(%rdx)
  40125f:	00 
  401260:	bd 05 00 00 00       	mov    $0x5,%ebp
  401265:	48 8b 43 08          	mov    0x8(%rbx),%rax
  401269:	8b 00                	mov    (%rax),%eax
  40126b:	39 03                	cmp    %eax,(%rbx)
  40126d:	7d 05                	jge    401274 <phase_6+0xdd>
  40126f:	e8 9b 03 00 00       	callq  40160f <explode_bomb>
  401274:	48 8b 5b 08          	mov    0x8(%rbx),%rbx
  401278:	83 ed 01             	sub    $0x1,%ebp
  40127b:	75 e8                	jne    401265 <phase_6+0xce>
  40127d:	48 83 c4 58          	add    $0x58,%rsp
  401281:	5b                   	pop    %rbx
  401282:	5d                   	pop    %rbp
  401283:	41 5c                	pop    %r12
  401285:	41 5d                	pop    %r13
  401287:	c3                   	retq   

0000000000401288 <fun7>:
  401288:	48 83 ec 08          	sub    $0x8,%rsp
  40128c:	48 85 ff             	test   %rdi,%rdi
  40128f:	74 2b                	je     4012bc <fun7+0x34>
  401291:	8b 17                	mov    (%rdi),%edx
  401293:	39 f2                	cmp    %esi,%edx
  401295:	7e 0d                	jle    4012a4 <fun7+0x1c>
  401297:	48 8b 7f 08          	mov    0x8(%rdi),%rdi
  40129b:	e8 e8 ff ff ff       	callq  401288 <fun7>
  4012a0:	01 c0                	add    %eax,%eax
  4012a2:	eb 1d                	jmp    4012c1 <fun7+0x39>
  4012a4:	b8 00 00 00 00       	mov    $0x0,%eax
  4012a9:	39 f2                	cmp    %esi,%edx
  4012ab:	74 14                	je     4012c1 <fun7+0x39>
  4012ad:	48 8b 7f 10          	mov    0x10(%rdi),%rdi
  4012b1:	e8 d2 ff ff ff       	callq  401288 <fun7>
  4012b6:	8d 44 00 01          	lea    0x1(%rax,%rax,1),%eax
  4012ba:	eb 05                	jmp    4012c1 <fun7+0x39>
  4012bc:	b8 ff ff ff ff       	mov    $0xffffffff,%eax
  4012c1:	48 83 c4 08          	add    $0x8,%rsp
  4012c5:	c3                   	retq   

00000000004012c6 <secret_phase>:
  4012c6:	53                   	push   %rbx
  4012c7:	e8 bb 03 00 00       	callq  401687 <read_line>
  4012cc:	ba 0a 00 00 00       	mov    $0xa,%edx
  4012d1:	be 00 00 00 00       	mov    $0x0,%esi
  4012d6:	48 89 c7             	mov    %rax,%rdi
  4012d9:	e8 22 f9 ff ff       	callq  400c00 <strtol@plt>
  4012de:	48 89 c3             	mov    %rax,%rbx
  4012e1:	8d 40 ff             	lea    -0x1(%rax),%eax
  4012e4:	3d e8 03 00 00       	cmp    $0x3e8,%eax
  4012e9:	76 05                	jbe    4012f0 <secret_phase+0x2a>
  4012eb:	e8 1f 03 00 00       	callq  40160f <explode_bomb>
  4012f0:	89 de                	mov    %ebx,%esi
  4012f2:	bf 20 41 60 00       	mov    $0x604120,%edi
  4012f7:	e8 8c ff ff ff       	callq  401288 <fun7>
  4012fc:	83 f8 04             	cmp    $0x4,%eax
  4012ff:	74 05                	je     401306 <secret_phase+0x40>
  401301:	e8 09 03 00 00       	callq  40160f <explode_bomb>
  401306:	bf 70 25 40 00       	mov    $0x402570,%edi
  40130b:	e8 30 f8 ff ff       	callq  400b40 <puts@plt>
  401310:	e8 98 04 00 00       	callq  4017ad <phase_defused>
  401315:	5b                   	pop    %rbx
  401316:	c3                   	retq   
  401317:	66 0f 1f 84 00 00 00 	nopw   0x0(%rax,%rax,1)
  40131e:	00 00 

0000000000401320 <sig_handler>:
  401320:	48 83 ec 08          	sub    $0x8,%rsp
  401324:	bf 20 26 40 00       	mov    $0x402620,%edi
  401329:	e8 12 f8 ff ff       	callq  400b40 <puts@plt>
  40132e:	bf 03 00 00 00       	mov    $0x3,%edi
  401333:	e8 68 f9 ff ff       	callq  400ca0 <sleep@plt>
  401338:	bf e9 27 40 00       	mov    $0x4027e9,%edi
  40133d:	b8 00 00 00 00       	mov    $0x0,%eax
  401342:	e8 19 f8 ff ff       	callq  400b60 <printf@plt>
  401347:	48 8b 3d 32 38 20 00 	mov    0x203832(%rip),%rdi        # 604b80 <__TMC_END__>
  40134e:	e8 cd f8 ff ff       	callq  400c20 <fflush@plt>
  401353:	bf 01 00 00 00       	mov    $0x1,%edi
  401358:	e8 43 f9 ff ff       	callq  400ca0 <sleep@plt>
  40135d:	bf f1 27 40 00       	mov    $0x4027f1,%edi
  401362:	e8 d9 f7 ff ff       	callq  400b40 <puts@plt>
  401367:	bf 10 00 00 00       	mov    $0x10,%edi
  40136c:	e8 0f f9 ff ff       	callq  400c80 <exit@plt>

0000000000401371 <invalid_phase>:
  401371:	48 83 ec 08          	sub    $0x8,%rsp
  401375:	48 89 fe             	mov    %rdi,%rsi
  401378:	bf f9 27 40 00       	mov    $0x4027f9,%edi
  40137d:	b8 00 00 00 00       	mov    $0x0,%eax
  401382:	e8 d9 f7 ff ff       	callq  400b60 <printf@plt>
  401387:	bf 08 00 00 00       	mov    $0x8,%edi
  40138c:	e8 ef f8 ff ff       	callq  400c80 <exit@plt>

0000000000401391 <string_length>:
  401391:	80 3f 00             	cmpb   $0x0,(%rdi)
  401394:	74 12                	je     4013a8 <string_length+0x17>
  401396:	48 89 fa             	mov    %rdi,%rdx
  401399:	48 83 c2 01          	add    $0x1,%rdx
  40139d:	89 d0                	mov    %edx,%eax
  40139f:	29 f8                	sub    %edi,%eax
  4013a1:	80 3a 00             	cmpb   $0x0,(%rdx)
  4013a4:	75 f3                	jne    401399 <string_length+0x8>
  4013a6:	f3 c3                	repz retq 
  4013a8:	b8 00 00 00 00       	mov    $0x0,%eax
  4013ad:	c3                   	retq   

00000000004013ae <strings_not_equal>:
  4013ae:	41 54                	push   %r12
  4013b0:	55                   	push   %rbp
  4013b1:	53                   	push   %rbx
  4013b2:	48 89 fb             	mov    %rdi,%rbx
  4013b5:	48 89 f5             	mov    %rsi,%rbp
  4013b8:	e8 d4 ff ff ff       	callq  401391 <string_length>
  4013bd:	41 89 c4             	mov    %eax,%r12d
  4013c0:	48 89 ef             	mov    %rbp,%rdi
  4013c3:	e8 c9 ff ff ff       	callq  401391 <string_length>
  4013c8:	ba 01 00 00 00       	mov    $0x1,%edx
  4013cd:	41 39 c4             	cmp    %eax,%r12d
  4013d0:	75 3e                	jne    401410 <strings_not_equal+0x62>
  4013d2:	0f b6 03             	movzbl (%rbx),%eax
  4013d5:	84 c0                	test   %al,%al
  4013d7:	74 24                	je     4013fd <strings_not_equal+0x4f>
  4013d9:	3a 45 00             	cmp    0x0(%rbp),%al
  4013dc:	74 09                	je     4013e7 <strings_not_equal+0x39>
  4013de:	66 90                	xchg   %ax,%ax
  4013e0:	eb 22                	jmp    401404 <strings_not_equal+0x56>
  4013e2:	3a 45 00             	cmp    0x0(%rbp),%al
  4013e5:	75 24                	jne    40140b <strings_not_equal+0x5d>
  4013e7:	48 83 c3 01          	add    $0x1,%rbx
  4013eb:	48 83 c5 01          	add    $0x1,%rbp
  4013ef:	0f b6 03             	movzbl (%rbx),%eax
  4013f2:	84 c0                	test   %al,%al
  4013f4:	75 ec                	jne    4013e2 <strings_not_equal+0x34>
  4013f6:	ba 00 00 00 00       	mov    $0x0,%edx
  4013fb:	eb 13                	jmp    401410 <strings_not_equal+0x62>
  4013fd:	ba 00 00 00 00       	mov    $0x0,%edx
  401402:	eb 0c                	jmp    401410 <strings_not_equal+0x62>
  401404:	ba 01 00 00 00       	mov    $0x1,%edx
  401409:	eb 05                	jmp    401410 <strings_not_equal+0x62>
  40140b:	ba 01 00 00 00       	mov    $0x1,%edx
  401410:	89 d0                	mov    %edx,%eax
  401412:	5b                   	pop    %rbx
  401413:	5d                   	pop    %rbp
  401414:	41 5c                	pop    %r12
  401416:	c3                   	retq   

0000000000401417 <initialize_bomb>:
  401417:	53                   	push   %rbx
  401418:	48 81 ec 40 20 00 00 	sub    $0x2040,%rsp
  40141f:	be 20 13 40 00       	mov    $0x401320,%esi
  401424:	bf 02 00 00 00       	mov    $0x2,%edi
  401429:	e8 92 f7 ff ff       	callq  400bc0 <signal@plt>
  40142e:	be 40 00 00 00       	mov    $0x40,%esi
  401433:	48 8d bc 24 00 20 00 	lea    0x2000(%rsp),%rdi
  40143a:	00 
  40143b:	e8 20 f8 ff ff       	callq  400c60 <gethostname@plt>
  401440:	85 c0                	test   %eax,%eax
  401442:	75 13                	jne    401457 <initialize_bomb+0x40>
  401444:	48 8b 3d 35 33 20 00 	mov    0x203335(%rip),%rdi        # 604780 <host_table>
  40144b:	bb 88 47 60 00       	mov    $0x604788,%ebx
  401450:	48 85 ff             	test   %rdi,%rdi
  401453:	75 16                	jne    40146b <initialize_bomb+0x54>
  401455:	eb 50                	jmp    4014a7 <initialize_bomb+0x90>
  401457:	bf 58 26 40 00       	mov    $0x402658,%edi
  40145c:	e8 df f6 ff ff       	callq  400b40 <puts@plt>
  401461:	bf 08 00 00 00       	mov    $0x8,%edi
  401466:	e8 15 f8 ff ff       	callq  400c80 <exit@plt>
  40146b:	48 8d b4 24 00 20 00 	lea    0x2000(%rsp),%rsi
  401472:	00 
  401473:	e8 98 f6 ff ff       	callq  400b10 <strcasecmp@plt>
  401478:	85 c0                	test   %eax,%eax
  40147a:	74 3f                	je     4014bb <initialize_bomb+0xa4>
  40147c:	48 83 c3 08          	add    $0x8,%rbx
  401480:	48 8b 7b f8          	mov    -0x8(%rbx),%rdi
  401484:	48 85 ff             	test   %rdi,%rdi
  401487:	75 e2                	jne    40146b <initialize_bomb+0x54>
  401489:	eb 1c                	jmp    4014a7 <initialize_bomb+0x90>
  40148b:	48 89 e6             	mov    %rsp,%rsi
  40148e:	bf 0a 28 40 00       	mov    $0x40280a,%edi
  401493:	b8 00 00 00 00       	mov    $0x0,%eax
  401498:	e8 c3 f6 ff ff       	callq  400b60 <printf@plt>
  40149d:	bf 08 00 00 00       	mov    $0x8,%edi
  4014a2:	e8 d9 f7 ff ff       	callq  400c80 <exit@plt>
  4014a7:	bf 90 26 40 00       	mov    $0x402690,%edi
  4014ac:	e8 8f f6 ff ff       	callq  400b40 <puts@plt>
  4014b1:	bf 08 00 00 00       	mov    $0x8,%edi
  4014b6:	e8 c5 f7 ff ff       	callq  400c80 <exit@plt>
  4014bb:	48 89 e7             	mov    %rsp,%rdi
  4014be:	e8 87 0c 00 00       	callq  40214a <init_driver>
  4014c3:	85 c0                	test   %eax,%eax
  4014c5:	78 c4                	js     40148b <initialize_bomb+0x74>
  4014c7:	48 81 c4 40 20 00 00 	add    $0x2040,%rsp
  4014ce:	5b                   	pop    %rbx
  4014cf:	c3                   	retq   

00000000004014d0 <initialize_bomb_solve>:
  4014d0:	f3 c3                	repz retq 

00000000004014d2 <blank_line>:
  4014d2:	55                   	push   %rbp
  4014d3:	53                   	push   %rbx
  4014d4:	48 83 ec 08          	sub    $0x8,%rsp
  4014d8:	48 89 fb             	mov    %rdi,%rbx
  4014db:	eb 17                	jmp    4014f4 <blank_line+0x22>
  4014dd:	e8 ce f7 ff ff       	callq  400cb0 <__ctype_b_loc@plt>
  4014e2:	48 83 c3 01          	add    $0x1,%rbx
  4014e6:	48 0f be ed          	movsbq %bpl,%rbp
  4014ea:	48 8b 00             	mov    (%rax),%rax
  4014ed:	f6 44 68 01 20       	testb  $0x20,0x1(%rax,%rbp,2)
  4014f2:	74 0f                	je     401503 <blank_line+0x31>
  4014f4:	0f b6 2b             	movzbl (%rbx),%ebp
  4014f7:	40 84 ed             	test   %bpl,%bpl
  4014fa:	75 e1                	jne    4014dd <blank_line+0xb>
  4014fc:	b8 01 00 00 00       	mov    $0x1,%eax
  401501:	eb 05                	jmp    401508 <blank_line+0x36>
  401503:	b8 00 00 00 00       	mov    $0x0,%eax
  401508:	48 83 c4 08          	add    $0x8,%rsp
  40150c:	5b                   	pop    %rbx
  40150d:	5d                   	pop    %rbp
  40150e:	c3                   	retq   

000000000040150f <skip>:
  40150f:	53                   	push   %rbx
  401510:	48 63 05 85 36 20 00 	movslq 0x203685(%rip),%rax        # 604b9c <num_input_strings>
  401517:	48 8d 3c 80          	lea    (%rax,%rax,4),%rdi
  40151b:	48 c1 e7 04          	shl    $0x4,%rdi
  40151f:	48 81 c7 c0 4b 60 00 	add    $0x604bc0,%rdi
  401526:	48 8b 15 73 36 20 00 	mov    0x203673(%rip),%rdx        # 604ba0 <infile>
  40152d:	be 50 00 00 00       	mov    $0x50,%esi
  401532:	e8 79 f6 ff ff       	callq  400bb0 <fgets@plt>
  401537:	48 89 c3             	mov    %rax,%rbx
  40153a:	48 85 c0             	test   %rax,%rax
  40153d:	74 0c                	je     40154b <skip+0x3c>
  40153f:	48 89 c7             	mov    %rax,%rdi
  401542:	e8 8b ff ff ff       	callq  4014d2 <blank_line>
  401547:	85 c0                	test   %eax,%eax
  401549:	75 c5                	jne    401510 <skip+0x1>
  40154b:	48 89 d8             	mov    %rbx,%rax
  40154e:	5b                   	pop    %rbx
  40154f:	c3                   	retq   

0000000000401550 <send_msg>:
  401550:	48 81 ec 08 40 00 00 	sub    $0x4008,%rsp
  401557:	89 fe                	mov    %edi,%esi
  401559:	44 8b 05 3c 36 20 00 	mov    0x20363c(%rip),%r8d        # 604b9c <num_input_strings>
  401560:	41 8d 40 ff          	lea    -0x1(%r8),%eax
  401564:	48 98                	cltq   
  401566:	4c 8d 0c 80          	lea    (%rax,%rax,4),%r9
  40156a:	49 c1 e1 04          	shl    $0x4,%r9
  40156e:	49 81 c1 c0 4b 60 00 	add    $0x604bc0,%r9
  401575:	4c 89 cf             	mov    %r9,%rdi
  401578:	b8 00 00 00 00       	mov    $0x0,%eax
  40157d:	48 c7 c1 ff ff ff ff 	mov    $0xffffffffffffffff,%rcx
  401584:	f2 ae                	repnz scas %es:(%rdi),%al
  401586:	48 f7 d1             	not    %rcx
  401589:	48 83 c1 63          	add    $0x63,%rcx
  40158d:	48 81 f9 00 20 00 00 	cmp    $0x2000,%rcx
  401594:	76 14                	jbe    4015aa <send_msg+0x5a>
  401596:	bf c8 26 40 00       	mov    $0x4026c8,%edi
  40159b:	e8 c0 f5 ff ff       	callq  400b60 <printf@plt>
  4015a0:	bf 08 00 00 00       	mov    $0x8,%edi
  4015a5:	e8 d6 f6 ff ff       	callq  400c80 <exit@plt>
  4015aa:	85 f6                	test   %esi,%esi
  4015ac:	b8 24 28 40 00       	mov    $0x402824,%eax
  4015b1:	b9 2c 28 40 00       	mov    $0x40282c,%ecx
  4015b6:	48 0f 45 c8          	cmovne %rax,%rcx
  4015ba:	8b 15 a0 31 20 00    	mov    0x2031a0(%rip),%edx        # 604760 <bomb_id>
  4015c0:	be 35 28 40 00       	mov    $0x402835,%esi
  4015c5:	48 8d bc 24 00 20 00 	lea    0x2000(%rsp),%rdi
  4015cc:	00 
  4015cd:	b8 00 00 00 00       	mov    $0x0,%eax
  4015d2:	e8 99 f6 ff ff       	callq  400c70 <sprintf@plt>
  4015d7:	48 89 e1             	mov    %rsp,%rcx
  4015da:	ba 00 00 00 00       	mov    $0x0,%edx
  4015df:	48 8d b4 24 00 20 00 	lea    0x2000(%rsp),%rsi
  4015e6:	00 
  4015e7:	bf 60 43 60 00       	mov    $0x604360,%edi
  4015ec:	e8 f7 0c 00 00       	callq  4022e8 <driver_post>
  4015f1:	85 c0                	test   %eax,%eax
  4015f3:	79 12                	jns    401607 <send_msg+0xb7>
  4015f5:	48 89 e7             	mov    %rsp,%rdi
  4015f8:	e8 43 f5 ff ff       	callq  400b40 <puts@plt>
  4015fd:	bf 00 00 00 00       	mov    $0x0,%edi
  401602:	e8 79 f6 ff ff       	callq  400c80 <exit@plt>
  401607:	48 81 c4 08 40 00 00 	add    $0x4008,%rsp
  40160e:	c3                   	retq   

000000000040160f <explode_bomb>:
  40160f:	48 83 ec 08          	sub    $0x8,%rsp
  401613:	bf 41 28 40 00       	mov    $0x402841,%edi
  401618:	e8 23 f5 ff ff       	callq  400b40 <puts@plt>
  40161d:	bf 4a 28 40 00       	mov    $0x40284a,%edi
  401622:	e8 19 f5 ff ff       	callq  400b40 <puts@plt>
  401627:	bf 00 00 00 00       	mov    $0x0,%edi
  40162c:	e8 1f ff ff ff       	callq  401550 <send_msg>
  401631:	bf f0 26 40 00       	mov    $0x4026f0,%edi
  401636:	e8 05 f5 ff ff       	callq  400b40 <puts@plt>
  40163b:	bf 08 00 00 00       	mov    $0x8,%edi
  401640:	e8 3b f6 ff ff       	callq  400c80 <exit@plt>

0000000000401645 <read_six_numbers>:
  401645:	48 83 ec 18          	sub    $0x18,%rsp
  401649:	48 89 f2             	mov    %rsi,%rdx
  40164c:	48 8d 4e 04          	lea    0x4(%rsi),%rcx
  401650:	48 8d 46 14          	lea    0x14(%rsi),%rax
  401654:	48 89 44 24 08       	mov    %rax,0x8(%rsp)
  401659:	48 8d 46 10          	lea    0x10(%rsi),%rax
  40165d:	48 89 04 24          	mov    %rax,(%rsp)
  401661:	4c 8d 4e 0c          	lea    0xc(%rsi),%r9
  401665:	4c 8d 46 08          	lea    0x8(%rsi),%r8
  401669:	be 61 28 40 00       	mov    $0x402861,%esi
  40166e:	b8 00 00 00 00       	mov    $0x0,%eax
  401673:	e8 b8 f5 ff ff       	callq  400c30 <__isoc99_sscanf@plt>
  401678:	83 f8 05             	cmp    $0x5,%eax
  40167b:	7f 05                	jg     401682 <read_six_numbers+0x3d>
  40167d:	e8 8d ff ff ff       	callq  40160f <explode_bomb>
  401682:	48 83 c4 18          	add    $0x18,%rsp
  401686:	c3                   	retq   

0000000000401687 <read_line>:
  401687:	48 83 ec 08          	sub    $0x8,%rsp
  40168b:	b8 00 00 00 00       	mov    $0x0,%eax
  401690:	e8 7a fe ff ff       	callq  40150f <skip>
  401695:	48 85 c0             	test   %rax,%rax
  401698:	75 6e                	jne    401708 <read_line+0x81>
  40169a:	48 8b 05 e7 34 20 00 	mov    0x2034e7(%rip),%rax        # 604b88 <stdin@@GLIBC_2.2.5>
  4016a1:	48 39 05 f8 34 20 00 	cmp    %rax,0x2034f8(%rip)        # 604ba0 <infile>
  4016a8:	75 14                	jne    4016be <read_line+0x37>
  4016aa:	bf 73 28 40 00       	mov    $0x402873,%edi
  4016af:	e8 8c f4 ff ff       	callq  400b40 <puts@plt>
  4016b4:	bf 08 00 00 00       	mov    $0x8,%edi
  4016b9:	e8 c2 f5 ff ff       	callq  400c80 <exit@plt>
  4016be:	bf 91 28 40 00       	mov    $0x402891,%edi
  4016c3:	e8 38 f4 ff ff       	callq  400b00 <getenv@plt>
  4016c8:	48 85 c0             	test   %rax,%rax
  4016cb:	74 0a                	je     4016d7 <read_line+0x50>
  4016cd:	bf 00 00 00 00       	mov    $0x0,%edi
  4016d2:	e8 a9 f5 ff ff       	callq  400c80 <exit@plt>
  4016d7:	48 8b 05 aa 34 20 00 	mov    0x2034aa(%rip),%rax        # 604b88 <stdin@@GLIBC_2.2.5>
  4016de:	48 89 05 bb 34 20 00 	mov    %rax,0x2034bb(%rip)        # 604ba0 <infile>
  4016e5:	b8 00 00 00 00       	mov    $0x0,%eax
  4016ea:	e8 20 fe ff ff       	callq  40150f <skip>
  4016ef:	48 85 c0             	test   %rax,%rax
  4016f2:	75 14                	jne    401708 <read_line+0x81>
  4016f4:	bf 73 28 40 00       	mov    $0x402873,%edi
  4016f9:	e8 42 f4 ff ff       	callq  400b40 <puts@plt>
  4016fe:	bf 00 00 00 00       	mov    $0x0,%edi
  401703:	e8 78 f5 ff ff       	callq  400c80 <exit@plt>
  401708:	8b 15 8e 34 20 00    	mov    0x20348e(%rip),%edx        # 604b9c <num_input_strings>
  40170e:	48 63 c2             	movslq %edx,%rax
  401711:	48 8d 34 80          	lea    (%rax,%rax,4),%rsi
  401715:	48 c1 e6 04          	shl    $0x4,%rsi
  401719:	48 81 c6 c0 4b 60 00 	add    $0x604bc0,%rsi
  401720:	48 89 f7             	mov    %rsi,%rdi
  401723:	b8 00 00 00 00       	mov    $0x0,%eax
  401728:	48 c7 c1 ff ff ff ff 	mov    $0xffffffffffffffff,%rcx
  40172f:	f2 ae                	repnz scas %es:(%rdi),%al
  401731:	48 f7 d1             	not    %rcx
  401734:	48 83 e9 01          	sub    $0x1,%rcx
  401738:	83 f9 4e             	cmp    $0x4e,%ecx
  40173b:	7e 46                	jle    401783 <read_line+0xfc>
  40173d:	bf 9c 28 40 00       	mov    $0x40289c,%edi
  401742:	e8 f9 f3 ff ff       	callq  400b40 <puts@plt>
  401747:	8b 05 4f 34 20 00    	mov    0x20344f(%rip),%eax        # 604b9c <num_input_strings>
  40174d:	8d 50 01             	lea    0x1(%rax),%edx
  401750:	89 15 46 34 20 00    	mov    %edx,0x203446(%rip)        # 604b9c <num_input_strings>
  401756:	48 98                	cltq   
  401758:	48 6b c0 50          	imul   $0x50,%rax,%rax
  40175c:	48 bf 2a 2a 2a 74 72 	movabs $0x636e7572742a2a2a,%rdi
  401763:	75 6e 63 
  401766:	48 89 b8 c0 4b 60 00 	mov    %rdi,0x604bc0(%rax)
  40176d:	48 bf 61 74 65 64 2a 	movabs $0x2a2a2a64657461,%rdi
  401774:	2a 2a 00 
  401777:	48 89 b8 c8 4b 60 00 	mov    %rdi,0x604bc8(%rax)
  40177e:	e8 8c fe ff ff       	callq  40160f <explode_bomb>
  401783:	83 e9 01             	sub    $0x1,%ecx
  401786:	48 63 c9             	movslq %ecx,%rcx
  401789:	48 63 c2             	movslq %edx,%rax
  40178c:	48 8d 04 80          	lea    (%rax,%rax,4),%rax
  401790:	48 c1 e0 04          	shl    $0x4,%rax
  401794:	c6 84 01 c0 4b 60 00 	movb   $0x0,0x604bc0(%rcx,%rax,1)
  40179b:	00 
  40179c:	83 c2 01             	add    $0x1,%edx
  40179f:	89 15 f7 33 20 00    	mov    %edx,0x2033f7(%rip)        # 604b9c <num_input_strings>
  4017a5:	48 89 f0             	mov    %rsi,%rax
  4017a8:	48 83 c4 08          	add    $0x8,%rsp
  4017ac:	c3                   	retq   

00000000004017ad <phase_defused>:
  4017ad:	48 83 ec 68          	sub    $0x68,%rsp
  4017b1:	bf 01 00 00 00       	mov    $0x1,%edi
  4017b6:	e8 95 fd ff ff       	callq  401550 <send_msg>
  4017bb:	83 3d da 33 20 00 06 	cmpl   $0x6,0x2033da(%rip)        # 604b9c <num_input_strings>
  4017c2:	75 6d                	jne    401831 <phase_defused+0x84>
  4017c4:	4c 8d 44 24 10       	lea    0x10(%rsp),%r8
  4017c9:	48 8d 4c 24 08       	lea    0x8(%rsp),%rcx
  4017ce:	48 8d 54 24 0c       	lea    0xc(%rsp),%rdx
  4017d3:	be b7 28 40 00       	mov    $0x4028b7,%esi
  4017d8:	bf b0 4c 60 00       	mov    $0x604cb0,%edi
  4017dd:	b8 00 00 00 00       	mov    $0x0,%eax
  4017e2:	e8 49 f4 ff ff       	callq  400c30 <__isoc99_sscanf@plt>
  4017e7:	83 f8 03             	cmp    $0x3,%eax
  4017ea:	75 31                	jne    40181d <phase_defused+0x70>
  4017ec:	be c0 28 40 00       	mov    $0x4028c0,%esi
  4017f1:	48 8d 7c 24 10       	lea    0x10(%rsp),%rdi
  4017f6:	e8 b3 fb ff ff       	callq  4013ae <strings_not_equal>
  4017fb:	85 c0                	test   %eax,%eax
  4017fd:	75 1e                	jne    40181d <phase_defused+0x70>
  4017ff:	bf 18 27 40 00       	mov    $0x402718,%edi
  401804:	e8 37 f3 ff ff       	callq  400b40 <puts@plt>
  401809:	bf 40 27 40 00       	mov    $0x402740,%edi
  40180e:	e8 2d f3 ff ff       	callq  400b40 <puts@plt>
  401813:	b8 00 00 00 00       	mov    $0x0,%eax
  401818:	e8 a9 fa ff ff       	callq  4012c6 <secret_phase>
  40181d:	bf 78 27 40 00       	mov    $0x402778,%edi
  401822:	e8 19 f3 ff ff       	callq  400b40 <puts@plt>
  401827:	bf a8 27 40 00       	mov    $0x4027a8,%edi
  40182c:	e8 0f f3 ff ff       	callq  400b40 <puts@plt>
  401831:	48 83 c4 68          	add    $0x68,%rsp
  401835:	c3                   	retq   
  401836:	66 2e 0f 1f 84 00 00 	nopw   %cs:0x0(%rax,%rax,1)
  40183d:	00 00 00 

0000000000401840 <sigalrm_handler>:
  401840:	48 83 ec 08          	sub    $0x8,%rsp
  401844:	ba 00 00 00 00       	mov    $0x0,%edx
  401849:	be b0 2b 40 00       	mov    $0x402bb0,%esi
  40184e:	48 8b 3d 3b 33 20 00 	mov    0x20333b(%rip),%rdi        # 604b90 <stderr@@GLIBC_2.2.5>
  401855:	b8 00 00 00 00       	mov    $0x0,%eax
  40185a:	e8 81 f3 ff ff       	callq  400be0 <fprintf@plt>
  40185f:	bf 01 00 00 00       	mov    $0x1,%edi
  401864:	e8 17 f4 ff ff       	callq  400c80 <exit@plt>

0000000000401869 <rio_readlineb>:
  401869:	41 57                	push   %r15
  40186b:	41 56                	push   %r14
  40186d:	41 55                	push   %r13
  40186f:	41 54                	push   %r12
  401871:	55                   	push   %rbp
  401872:	53                   	push   %rbx
  401873:	48 83 ec 38          	sub    $0x38,%rsp
  401877:	49 89 f6             	mov    %rsi,%r14
  40187a:	48 89 54 24 18       	mov    %rdx,0x18(%rsp)
  40187f:	48 83 fa 01          	cmp    $0x1,%rdx
  401883:	0f 86 c2 00 00 00    	jbe    40194b <rio_readlineb+0xe2>
  401889:	48 89 fb             	mov    %rdi,%rbx
  40188c:	41 bd 01 00 00 00    	mov    $0x1,%r13d
  401892:	4c 8d 67 10          	lea    0x10(%rdi),%r12
  401896:	eb 2e                	jmp    4018c6 <rio_readlineb+0x5d>
  401898:	ba 00 20 00 00       	mov    $0x2000,%edx
  40189d:	4c 89 e6             	mov    %r12,%rsi
  4018a0:	8b 3b                	mov    (%rbx),%edi
  4018a2:	e8 e9 f2 ff ff       	callq  400b90 <read@plt>
  4018a7:	89 43 04             	mov    %eax,0x4(%rbx)
  4018aa:	85 c0                	test   %eax,%eax
  4018ac:	79 0f                	jns    4018bd <rio_readlineb+0x54>
  4018ae:	e8 6d f2 ff ff       	callq  400b20 <__errno_location@plt>
  4018b3:	83 38 04             	cmpl   $0x4,(%rax)
  4018b6:	74 0e                	je     4018c6 <rio_readlineb+0x5d>
  4018b8:	e9 9d 00 00 00       	jmpq   40195a <rio_readlineb+0xf1>
  4018bd:	85 c0                	test   %eax,%eax
  4018bf:	90                   	nop
  4018c0:	74 6c                	je     40192e <rio_readlineb+0xc5>
  4018c2:	4c 89 63 08          	mov    %r12,0x8(%rbx)
  4018c6:	8b 6b 04             	mov    0x4(%rbx),%ebp
  4018c9:	85 ed                	test   %ebp,%ebp
  4018cb:	7e cb                	jle    401898 <rio_readlineb+0x2f>
  4018cd:	85 ed                	test   %ebp,%ebp
  4018cf:	41 0f 95 c7          	setne  %r15b
  4018d3:	41 0f b6 c7          	movzbl %r15b,%eax
  4018d7:	89 44 24 0c          	mov    %eax,0xc(%rsp)
  4018db:	45 0f b6 ff          	movzbl %r15b,%r15d
  4018df:	48 8b 4b 08          	mov    0x8(%rbx),%rcx
  4018e3:	4c 89 fa             	mov    %r15,%rdx
  4018e6:	48 89 4c 24 10       	mov    %rcx,0x10(%rsp)
  4018eb:	48 89 ce             	mov    %rcx,%rsi
  4018ee:	48 8d 7c 24 2f       	lea    0x2f(%rsp),%rdi
  4018f3:	e8 18 f3 ff ff       	callq  400c10 <memcpy@plt>
  4018f8:	4c 03 7c 24 10       	add    0x10(%rsp),%r15
  4018fd:	4c 89 7b 08          	mov    %r15,0x8(%rbx)
  401901:	8b 44 24 0c          	mov    0xc(%rsp),%eax
  401905:	29 c5                	sub    %eax,%ebp
  401907:	89 6b 04             	mov    %ebp,0x4(%rbx)
  40190a:	83 f8 01             	cmp    $0x1,%eax
  40190d:	75 13                	jne    401922 <rio_readlineb+0xb9>
  40190f:	49 83 c6 01          	add    $0x1,%r14
  401913:	0f b6 44 24 2f       	movzbl 0x2f(%rsp),%eax
  401918:	41 88 46 ff          	mov    %al,-0x1(%r14)
  40191c:	3c 0a                	cmp    $0xa,%al
  40191e:	75 18                	jne    401938 <rio_readlineb+0xcf>
  401920:	eb 2f                	jmp    401951 <rio_readlineb+0xe8>
  401922:	83 7c 24 0c 00       	cmpl   $0x0,0xc(%rsp)
  401927:	75 3a                	jne    401963 <rio_readlineb+0xfa>
  401929:	44 89 e8             	mov    %r13d,%eax
  40192c:	eb 03                	jmp    401931 <rio_readlineb+0xc8>
  40192e:	44 89 e8             	mov    %r13d,%eax
  401931:	83 f8 01             	cmp    $0x1,%eax
  401934:	75 1b                	jne    401951 <rio_readlineb+0xe8>
  401936:	eb 34                	jmp    40196c <rio_readlineb+0x103>
  401938:	41 83 c5 01          	add    $0x1,%r13d
  40193c:	49 63 c5             	movslq %r13d,%rax
  40193f:	48 3b 44 24 18       	cmp    0x18(%rsp),%rax
  401944:	73 0b                	jae    401951 <rio_readlineb+0xe8>
  401946:	e9 7b ff ff ff       	jmpq   4018c6 <rio_readlineb+0x5d>
  40194b:	41 bd 01 00 00 00    	mov    $0x1,%r13d
  401951:	41 c6 06 00          	movb   $0x0,(%r14)
  401955:	49 63 c5             	movslq %r13d,%rax
  401958:	eb 17                	jmp    401971 <rio_readlineb+0x108>
  40195a:	48 c7 c0 ff ff ff ff 	mov    $0xffffffffffffffff,%rax
  401961:	eb 0e                	jmp    401971 <rio_readlineb+0x108>
  401963:	48 c7 c0 ff ff ff ff 	mov    $0xffffffffffffffff,%rax
  40196a:	eb 05                	jmp    401971 <rio_readlineb+0x108>
  40196c:	b8 00 00 00 00       	mov    $0x0,%eax
  401971:	48 83 c4 38          	add    $0x38,%rsp
  401975:	5b                   	pop    %rbx
  401976:	5d                   	pop    %rbp
  401977:	41 5c                	pop    %r12
  401979:	41 5d                	pop    %r13
  40197b:	41 5e                	pop    %r14
  40197d:	41 5f                	pop    %r15
  40197f:	c3                   	retq   

0000000000401980 <submitr>:
  401980:	41 57                	push   %r15
  401982:	41 56                	push   %r14
  401984:	41 55                	push   %r13
  401986:	41 54                	push   %r12
  401988:	55                   	push   %rbp
  401989:	53                   	push   %rbx
  40198a:	48 81 ec 58 a0 00 00 	sub    $0xa058,%rsp
  401991:	48 89 fd             	mov    %rdi,%rbp
  401994:	41 89 f5             	mov    %esi,%r13d
  401997:	48 89 14 24          	mov    %rdx,(%rsp)
  40199b:	48 89 4c 24 08       	mov    %rcx,0x8(%rsp)
  4019a0:	4d 89 c7             	mov    %r8,%r15
  4019a3:	4c 89 cb             	mov    %r9,%rbx
  4019a6:	4c 8b b4 24 90 a0 00 	mov    0xa090(%rsp),%r14
  4019ad:	00 
  4019ae:	c7 84 24 2c 20 00 00 	movl   $0x0,0x202c(%rsp)
  4019b5:	00 00 00 00 
  4019b9:	ba 00 00 00 00       	mov    $0x0,%edx
  4019be:	be 01 00 00 00       	mov    $0x1,%esi
  4019c3:	bf 02 00 00 00       	mov    $0x2,%edi
  4019c8:	e8 f3 f2 ff ff       	callq  400cc0 <socket@plt>
  4019cd:	41 89 c4             	mov    %eax,%r12d
  4019d0:	85 c0                	test   %eax,%eax
  4019d2:	79 50                	jns    401a24 <submitr+0xa4>
  4019d4:	48 b8 45 72 72 6f 72 	movabs $0x43203a726f727245,%rax
  4019db:	3a 20 43 
  4019de:	49 89 06             	mov    %rax,(%r14)
  4019e1:	48 b8 6c 69 65 6e 74 	movabs $0x6e7520746e65696c,%rax
  4019e8:	20 75 6e 
  4019eb:	49 89 46 08          	mov    %rax,0x8(%r14)
  4019ef:	48 b8 61 62 6c 65 20 	movabs $0x206f7420656c6261,%rax
  4019f6:	74 6f 20 
  4019f9:	49 89 46 10          	mov    %rax,0x10(%r14)
  4019fd:	48 b8 63 72 65 61 74 	movabs $0x7320657461657263,%rax
  401a04:	65 20 73 
  401a07:	49 89 46 18          	mov    %rax,0x18(%r14)
  401a0b:	41 c7 46 20 6f 63 6b 	movl   $0x656b636f,0x20(%r14)
  401a12:	65 
  401a13:	66 41 c7 46 24 74 00 	movw   $0x74,0x24(%r14)
  401a1a:	b8 ff ff ff ff       	mov    $0xffffffff,%eax
  401a1f:	e9 ed 06 00 00       	jmpq   402111 <submitr+0x791>
  401a24:	48 89 ef             	mov    %rbp,%rdi
  401a27:	e8 a4 f1 ff ff       	callq  400bd0 <gethostbyname@plt>
  401a2c:	48 85 c0             	test   %rax,%rax
  401a2f:	75 6b                	jne    401a9c <submitr+0x11c>
  401a31:	48 b8 45 72 72 6f 72 	movabs $0x44203a726f727245,%rax
  401a38:	3a 20 44 
  401a3b:	49 89 06             	mov    %rax,(%r14)
  401a3e:	48 b8 4e 53 20 69 73 	movabs $0x6e7520736920534e,%rax
  401a45:	20 75 6e 
  401a48:	49 89 46 08          	mov    %rax,0x8(%r14)
  401a4c:	48 b8 61 62 6c 65 20 	movabs $0x206f7420656c6261,%rax
  401a53:	74 6f 20 
  401a56:	49 89 46 10          	mov    %rax,0x10(%r14)
  401a5a:	48 b8 72 65 73 6f 6c 	movabs $0x2065766c6f736572,%rax
  401a61:	76 65 20 
  401a64:	49 89 46 18          	mov    %rax,0x18(%r14)
  401a68:	48 b8 73 65 72 76 65 	movabs $0x6120726576726573,%rax
  401a6f:	72 20 61 
  401a72:	49 89 46 20          	mov    %rax,0x20(%r14)
  401a76:	41 c7 46 28 64 64 72 	movl   $0x65726464,0x28(%r14)
  401a7d:	65 
  401a7e:	66 41 c7 46 2c 73 73 	movw   $0x7373,0x2c(%r14)
  401a85:	41 c6 46 2e 00       	movb   $0x0,0x2e(%r14)
  401a8a:	44 89 e7             	mov    %r12d,%edi
  401a8d:	e8 ee f0 ff ff       	callq  400b80 <close@plt>
  401a92:	b8 ff ff ff ff       	mov    $0xffffffff,%eax
  401a97:	e9 75 06 00 00       	jmpq   402111 <submitr+0x791>
  401a9c:	48 c7 84 24 40 a0 00 	movq   $0x0,0xa040(%rsp)
  401aa3:	00 00 00 00 00 
  401aa8:	48 c7 84 24 48 a0 00 	movq   $0x0,0xa048(%rsp)
  401aaf:	00 00 00 00 00 
  401ab4:	66 c7 84 24 40 a0 00 	movw   $0x2,0xa040(%rsp)
  401abb:	00 02 00 
  401abe:	48 63 50 14          	movslq 0x14(%rax),%rdx
  401ac2:	48 8d b4 24 44 a0 00 	lea    0xa044(%rsp),%rsi
  401ac9:	00 
  401aca:	48 8b 40 18          	mov    0x18(%rax),%rax
  401ace:	48 8b 38             	mov    (%rax),%rdi
  401ad1:	e8 6a f1 ff ff       	callq  400c40 <bcopy@plt>
  401ad6:	66 41 c1 cd 08       	ror    $0x8,%r13w
  401adb:	66 44 89 ac 24 42 a0 	mov    %r13w,0xa042(%rsp)
  401ae2:	00 00 
  401ae4:	ba 10 00 00 00       	mov    $0x10,%edx
  401ae9:	48 8d b4 24 40 a0 00 	lea    0xa040(%rsp),%rsi
  401af0:	00 
  401af1:	44 89 e7             	mov    %r12d,%edi
  401af4:	e8 97 f1 ff ff       	callq  400c90 <connect@plt>
  401af9:	85 c0                	test   %eax,%eax
  401afb:	79 5d                	jns    401b5a <submitr+0x1da>
  401afd:	48 b8 45 72 72 6f 72 	movabs $0x55203a726f727245,%rax
  401b04:	3a 20 55 
  401b07:	49 89 06             	mov    %rax,(%r14)
  401b0a:	48 b8 6e 61 62 6c 65 	movabs $0x6f7420656c62616e,%rax
  401b11:	20 74 6f 
  401b14:	49 89 46 08          	mov    %rax,0x8(%r14)
  401b18:	48 b8 20 63 6f 6e 6e 	movabs $0x7463656e6e6f6320,%rax
  401b1f:	65 63 74 
  401b22:	49 89 46 10          	mov    %rax,0x10(%r14)
  401b26:	48 b8 20 74 6f 20 74 	movabs $0x20656874206f7420,%rax
  401b2d:	68 65 20 
  401b30:	49 89 46 18          	mov    %rax,0x18(%r14)
  401b34:	41 c7 46 20 73 65 72 	movl   $0x76726573,0x20(%r14)
  401b3b:	76 
  401b3c:	66 41 c7 46 24 65 72 	movw   $0x7265,0x24(%r14)
  401b43:	41 c6 46 26 00       	movb   $0x0,0x26(%r14)
  401b48:	44 89 e7             	mov    %r12d,%edi
  401b4b:	e8 30 f0 ff ff       	callq  400b80 <close@plt>
  401b50:	b8 ff ff ff ff       	mov    $0xffffffff,%eax
  401b55:	e9 b7 05 00 00       	jmpq   402111 <submitr+0x791>
  401b5a:	48 c7 c2 ff ff ff ff 	mov    $0xffffffffffffffff,%rdx
  401b61:	48 89 df             	mov    %rbx,%rdi
  401b64:	b8 00 00 00 00       	mov    $0x0,%eax
  401b69:	48 89 d1             	mov    %rdx,%rcx
  401b6c:	f2 ae                	repnz scas %es:(%rdi),%al
  401b6e:	48 f7 d1             	not    %rcx
  401b71:	48 89 ce             	mov    %rcx,%rsi
  401b74:	48 8b 3c 24          	mov    (%rsp),%rdi
  401b78:	48 89 d1             	mov    %rdx,%rcx
  401b7b:	f2 ae                	repnz scas %es:(%rdi),%al
  401b7d:	49 89 c8             	mov    %rcx,%r8
  401b80:	48 8b 7c 24 08       	mov    0x8(%rsp),%rdi
  401b85:	48 89 d1             	mov    %rdx,%rcx
  401b88:	f2 ae                	repnz scas %es:(%rdi),%al
  401b8a:	48 f7 d1             	not    %rcx
  401b8d:	49 89 c9             	mov    %rcx,%r9
  401b90:	4c 89 ff             	mov    %r15,%rdi
  401b93:	48 89 d1             	mov    %rdx,%rcx
  401b96:	f2 ae                	repnz scas %es:(%rdi),%al
  401b98:	4d 29 c1             	sub    %r8,%r9
  401b9b:	49 29 c9             	sub    %rcx,%r9
  401b9e:	48 8d 44 76 fd       	lea    -0x3(%rsi,%rsi,2),%rax
  401ba3:	49 8d 44 01 7b       	lea    0x7b(%r9,%rax,1),%rax
  401ba8:	48 3d 00 20 00 00    	cmp    $0x2000,%rax
  401bae:	76 73                	jbe    401c23 <submitr+0x2a3>
  401bb0:	48 b8 45 72 72 6f 72 	movabs $0x52203a726f727245,%rax
  401bb7:	3a 20 52 
  401bba:	49 89 06             	mov    %rax,(%r14)
  401bbd:	48 b8 65 73 75 6c 74 	movabs $0x747320746c757365,%rax
  401bc4:	20 73 74 
  401bc7:	49 89 46 08          	mov    %rax,0x8(%r14)
  401bcb:	48 b8 72 69 6e 67 20 	movabs $0x6f6f7420676e6972,%rax
  401bd2:	74 6f 6f 
  401bd5:	49 89 46 10          	mov    %rax,0x10(%r14)
  401bd9:	48 b8 20 6c 61 72 67 	movabs $0x202e656772616c20,%rax
  401be0:	65 2e 20 
  401be3:	49 89 46 18          	mov    %rax,0x18(%r14)
  401be7:	48 b8 49 6e 63 72 65 	movabs $0x6573616572636e49,%rax
  401bee:	61 73 65 
  401bf1:	49 89 46 20          	mov    %rax,0x20(%r14)
  401bf5:	48 b8 20 53 55 42 4d 	movabs $0x5254494d42555320,%rax
  401bfc:	49 54 52 
  401bff:	49 89 46 28          	mov    %rax,0x28(%r14)
  401c03:	48 b8 5f 4d 41 58 42 	movabs $0x46554258414d5f,%rax
  401c0a:	55 46 00 
  401c0d:	49 89 46 30          	mov    %rax,0x30(%r14)
  401c11:	44 89 e7             	mov    %r12d,%edi
  401c14:	e8 67 ef ff ff       	callq  400b80 <close@plt>
  401c19:	b8 ff ff ff ff       	mov    $0xffffffff,%eax
  401c1e:	e9 ee 04 00 00       	jmpq   402111 <submitr+0x791>
  401c23:	48 8d 94 24 30 40 00 	lea    0x4030(%rsp),%rdx
  401c2a:	00 
  401c2b:	b9 00 04 00 00       	mov    $0x400,%ecx
  401c30:	b8 00 00 00 00       	mov    $0x0,%eax
  401c35:	48 89 d7             	mov    %rdx,%rdi
  401c38:	f3 48 ab             	rep stos %rax,%es:(%rdi)
  401c3b:	48 89 df             	mov    %rbx,%rdi
  401c3e:	48 c7 c1 ff ff ff ff 	mov    $0xffffffffffffffff,%rcx
  401c45:	f2 ae                	repnz scas %es:(%rdi),%al
  401c47:	48 f7 d1             	not    %rcx
  401c4a:	48 83 e9 01          	sub    $0x1,%rcx
  401c4e:	85 c9                	test   %ecx,%ecx
  401c50:	0f 84 d2 03 00 00    	je     402028 <submitr+0x6a8>
  401c56:	83 e9 01             	sub    $0x1,%ecx
  401c59:	4c 8d 6c 0b 01       	lea    0x1(%rbx,%rcx,1),%r13
  401c5e:	48 89 d5             	mov    %rdx,%rbp
  401c61:	0f b6 13             	movzbl (%rbx),%edx
  401c64:	80 fa 2a             	cmp    $0x2a,%dl
  401c67:	74 1f                	je     401c88 <submitr+0x308>
  401c69:	8d 42 d3             	lea    -0x2d(%rdx),%eax
  401c6c:	3c 01                	cmp    $0x1,%al
  401c6e:	76 18                	jbe    401c88 <submitr+0x308>
  401c70:	80 fa 5f             	cmp    $0x5f,%dl
  401c73:	74 13                	je     401c88 <submitr+0x308>
  401c75:	8d 42 d0             	lea    -0x30(%rdx),%eax
  401c78:	3c 09                	cmp    $0x9,%al
  401c7a:	76 0c                	jbe    401c88 <submitr+0x308>
  401c7c:	89 d0                	mov    %edx,%eax
  401c7e:	83 e0 df             	and    $0xffffffdf,%eax
  401c81:	83 e8 41             	sub    $0x41,%eax
  401c84:	3c 19                	cmp    $0x19,%al
  401c86:	77 09                	ja     401c91 <submitr+0x311>
  401c88:	48 8d 45 01          	lea    0x1(%rbp),%rax
  401c8c:	88 55 00             	mov    %dl,0x0(%rbp)
  401c8f:	eb 52                	jmp    401ce3 <submitr+0x363>
  401c91:	80 fa 20             	cmp    $0x20,%dl
  401c94:	75 0a                	jne    401ca0 <submitr+0x320>
  401c96:	48 8d 45 01          	lea    0x1(%rbp),%rax
  401c9a:	c6 45 00 2b          	movb   $0x2b,0x0(%rbp)
  401c9e:	eb 43                	jmp    401ce3 <submitr+0x363>
  401ca0:	8d 42 e0             	lea    -0x20(%rdx),%eax
  401ca3:	3c 5f                	cmp    $0x5f,%al
  401ca5:	76 09                	jbe    401cb0 <submitr+0x330>
  401ca7:	80 fa 09             	cmp    $0x9,%dl
  401caa:	0f 85 d9 03 00 00    	jne    402089 <submitr+0x709>
  401cb0:	0f b6 d2             	movzbl %dl,%edx
  401cb3:	be 80 2c 40 00       	mov    $0x402c80,%esi
  401cb8:	48 8d 7c 24 10       	lea    0x10(%rsp),%rdi
  401cbd:	b8 00 00 00 00       	mov    $0x0,%eax
  401cc2:	e8 a9 ef ff ff       	callq  400c70 <sprintf@plt>
  401cc7:	0f b6 44 24 10       	movzbl 0x10(%rsp),%eax
  401ccc:	88 45 00             	mov    %al,0x0(%rbp)
  401ccf:	0f b6 44 24 11       	movzbl 0x11(%rsp),%eax
  401cd4:	88 45 01             	mov    %al,0x1(%rbp)
  401cd7:	48 8d 45 03          	lea    0x3(%rbp),%rax
  401cdb:	0f b6 54 24 12       	movzbl 0x12(%rsp),%edx
  401ce0:	88 55 02             	mov    %dl,0x2(%rbp)
  401ce3:	48 83 c3 01          	add    $0x1,%rbx
  401ce7:	4c 39 eb             	cmp    %r13,%rbx
  401cea:	0f 84 38 03 00 00    	je     402028 <submitr+0x6a8>
  401cf0:	48 89 c5             	mov    %rax,%rbp
  401cf3:	e9 69 ff ff ff       	jmpq   401c61 <submitr+0x2e1>
  401cf8:	48 89 da             	mov    %rbx,%rdx
  401cfb:	48 89 ee             	mov    %rbp,%rsi
  401cfe:	44 89 e7             	mov    %r12d,%edi
  401d01:	e8 4a ee ff ff       	callq  400b50 <write@plt>
  401d06:	48 85 c0             	test   %rax,%rax
  401d09:	7f 0f                	jg     401d1a <submitr+0x39a>
  401d0b:	e8 10 ee ff ff       	callq  400b20 <__errno_location@plt>
  401d10:	83 38 04             	cmpl   $0x4,(%rax)
  401d13:	75 12                	jne    401d27 <submitr+0x3a7>
  401d15:	b8 00 00 00 00       	mov    $0x0,%eax
  401d1a:	48 01 c5             	add    %rax,%rbp
  401d1d:	48 29 c3             	sub    %rax,%rbx
  401d20:	75 d6                	jne    401cf8 <submitr+0x378>
  401d22:	4d 85 ed             	test   %r13,%r13
  401d25:	79 5f                	jns    401d86 <submitr+0x406>
  401d27:	48 b8 45 72 72 6f 72 	movabs $0x43203a726f727245,%rax
  401d2e:	3a 20 43 
  401d31:	49 89 06             	mov    %rax,(%r14)
  401d34:	48 b8 6c 69 65 6e 74 	movabs $0x6e7520746e65696c,%rax
  401d3b:	20 75 6e 
  401d3e:	49 89 46 08          	mov    %rax,0x8(%r14)
  401d42:	48 b8 61 62 6c 65 20 	movabs $0x206f7420656c6261,%rax
  401d49:	74 6f 20 
  401d4c:	49 89 46 10          	mov    %rax,0x10(%r14)
  401d50:	48 b8 77 72 69 74 65 	movabs $0x6f74206574697277,%rax
  401d57:	20 74 6f 
  401d5a:	49 89 46 18          	mov    %rax,0x18(%r14)
  401d5e:	48 b8 20 74 68 65 20 	movabs $0x7265732065687420,%rax
  401d65:	73 65 72 
  401d68:	49 89 46 20          	mov    %rax,0x20(%r14)
  401d6c:	41 c7 46 28 76 65 72 	movl   $0x726576,0x28(%r14)
  401d73:	00 
  401d74:	44 89 e7             	mov    %r12d,%edi
  401d77:	e8 04 ee ff ff       	callq  400b80 <close@plt>
  401d7c:	b8 ff ff ff ff       	mov    $0xffffffff,%eax
  401d81:	e9 8b 03 00 00       	jmpq   402111 <submitr+0x791>
  401d86:	44 89 a4 24 30 80 00 	mov    %r12d,0x8030(%rsp)
  401d8d:	00 
  401d8e:	c7 84 24 34 80 00 00 	movl   $0x0,0x8034(%rsp)
  401d95:	00 00 00 00 
  401d99:	48 8d 84 24 40 80 00 	lea    0x8040(%rsp),%rax
  401da0:	00 
  401da1:	48 89 84 24 38 80 00 	mov    %rax,0x8038(%rsp)
  401da8:	00 
  401da9:	ba 00 20 00 00       	mov    $0x2000,%edx
  401dae:	48 8d b4 24 30 60 00 	lea    0x6030(%rsp),%rsi
  401db5:	00 
  401db6:	48 8d bc 24 30 80 00 	lea    0x8030(%rsp),%rdi
  401dbd:	00 
  401dbe:	e8 a6 fa ff ff       	callq  401869 <rio_readlineb>
  401dc3:	48 85 c0             	test   %rax,%rax
  401dc6:	7f 74                	jg     401e3c <submitr+0x4bc>
  401dc8:	48 b8 45 72 72 6f 72 	movabs $0x43203a726f727245,%rax
  401dcf:	3a 20 43 
  401dd2:	49 89 06             	mov    %rax,(%r14)
  401dd5:	48 b8 6c 69 65 6e 74 	movabs $0x6e7520746e65696c,%rax
  401ddc:	20 75 6e 
  401ddf:	49 89 46 08          	mov    %rax,0x8(%r14)
  401de3:	48 b8 61 62 6c 65 20 	movabs $0x206f7420656c6261,%rax
  401dea:	74 6f 20 
  401ded:	49 89 46 10          	mov    %rax,0x10(%r14)
  401df1:	48 b8 72 65 61 64 20 	movabs $0x7269662064616572,%rax
  401df8:	66 69 72 
  401dfb:	49 89 46 18          	mov    %rax,0x18(%r14)
  401dff:	48 b8 73 74 20 68 65 	movabs $0x6564616568207473,%rax
  401e06:	61 64 65 
  401e09:	49 89 46 20          	mov    %rax,0x20(%r14)
  401e0d:	48 b8 72 20 66 72 6f 	movabs $0x73206d6f72662072,%rax
  401e14:	6d 20 73 
  401e17:	49 89 46 28          	mov    %rax,0x28(%r14)
  401e1b:	41 c7 46 30 65 72 76 	movl   $0x65767265,0x30(%r14)
  401e22:	65 
  401e23:	66 41 c7 46 34 72 00 	movw   $0x72,0x34(%r14)
  401e2a:	44 89 e7             	mov    %r12d,%edi
  401e2d:	e8 4e ed ff ff       	callq  400b80 <close@plt>
  401e32:	b8 ff ff ff ff       	mov    $0xffffffff,%eax
  401e37:	e9 d5 02 00 00       	jmpq   402111 <submitr+0x791>
  401e3c:	4c 8d 44 24 20       	lea    0x20(%rsp),%r8
  401e41:	48 8d 8c 24 2c 20 00 	lea    0x202c(%rsp),%rcx
  401e48:	00 
  401e49:	48 8d 94 24 30 20 00 	lea    0x2030(%rsp),%rdx
  401e50:	00 
  401e51:	be 87 2c 40 00       	mov    $0x402c87,%esi
  401e56:	48 8d bc 24 30 60 00 	lea    0x6030(%rsp),%rdi
  401e5d:	00 
  401e5e:	b8 00 00 00 00       	mov    $0x0,%eax
  401e63:	e8 c8 ed ff ff       	callq  400c30 <__isoc99_sscanf@plt>
  401e68:	8b 94 24 2c 20 00 00 	mov    0x202c(%rsp),%edx
  401e6f:	81 fa c8 00 00 00    	cmp    $0xc8,%edx
  401e75:	0f 84 b2 00 00 00    	je     401f2d <submitr+0x5ad>
  401e7b:	48 8d 4c 24 20       	lea    0x20(%rsp),%rcx
  401e80:	be d8 2b 40 00       	mov    $0x402bd8,%esi
  401e85:	4c 89 f7             	mov    %r14,%rdi
  401e88:	b8 00 00 00 00       	mov    $0x0,%eax
  401e8d:	e8 de ed ff ff       	callq  400c70 <sprintf@plt>
  401e92:	44 89 e7             	mov    %r12d,%edi
  401e95:	e8 e6 ec ff ff       	callq  400b80 <close@plt>
  401e9a:	b8 ff ff ff ff       	mov    $0xffffffff,%eax
  401e9f:	e9 6d 02 00 00       	jmpq   402111 <submitr+0x791>
  401ea4:	ba 00 20 00 00       	mov    $0x2000,%edx
  401ea9:	48 8d b4 24 30 60 00 	lea    0x6030(%rsp),%rsi
  401eb0:	00 
  401eb1:	48 8d bc 24 30 80 00 	lea    0x8030(%rsp),%rdi
  401eb8:	00 
  401eb9:	e8 ab f9 ff ff       	callq  401869 <rio_readlineb>
  401ebe:	48 85 c0             	test   %rax,%rax
  401ec1:	7f 6a                	jg     401f2d <submitr+0x5ad>
  401ec3:	48 b8 45 72 72 6f 72 	movabs $0x43203a726f727245,%rax
  401eca:	3a 20 43 
  401ecd:	49 89 06             	mov    %rax,(%r14)
  401ed0:	48 b8 6c 69 65 6e 74 	movabs $0x6e7520746e65696c,%rax
  401ed7:	20 75 6e 
  401eda:	49 89 46 08          	mov    %rax,0x8(%r14)
  401ede:	48 b8 61 62 6c 65 20 	movabs $0x206f7420656c6261,%rax
  401ee5:	74 6f 20 
  401ee8:	49 89 46 10          	mov    %rax,0x10(%r14)
  401eec:	48 b8 72 65 61 64 20 	movabs $0x6165682064616572,%rax
  401ef3:	68 65 61 
  401ef6:	49 89 46 18          	mov    %rax,0x18(%r14)
  401efa:	48 b8 64 65 72 73 20 	movabs $0x6f72662073726564,%rax
  401f01:	66 72 6f 
  401f04:	49 89 46 20          	mov    %rax,0x20(%r14)
  401f08:	48 b8 6d 20 73 65 72 	movabs $0x726576726573206d,%rax
  401f0f:	76 65 72 
  401f12:	49 89 46 28          	mov    %rax,0x28(%r14)
  401f16:	41 c6 46 30 00       	movb   $0x0,0x30(%r14)
  401f1b:	44 89 e7             	mov    %r12d,%edi
  401f1e:	e8 5d ec ff ff       	callq  400b80 <close@plt>
  401f23:	b8 ff ff ff ff       	mov    $0xffffffff,%eax
  401f28:	e9 e4 01 00 00       	jmpq   402111 <submitr+0x791>
  401f2d:	80 bc 24 30 60 00 00 	cmpb   $0xd,0x6030(%rsp)
  401f34:	0d 
  401f35:	0f 85 69 ff ff ff    	jne    401ea4 <submitr+0x524>
  401f3b:	80 bc 24 31 60 00 00 	cmpb   $0xa,0x6031(%rsp)
  401f42:	0a 
  401f43:	0f 85 5b ff ff ff    	jne    401ea4 <submitr+0x524>
  401f49:	80 bc 24 32 60 00 00 	cmpb   $0x0,0x6032(%rsp)
  401f50:	00 
  401f51:	0f 85 4d ff ff ff    	jne    401ea4 <submitr+0x524>
  401f57:	ba 00 20 00 00       	mov    $0x2000,%edx
  401f5c:	48 8d b4 24 30 60 00 	lea    0x6030(%rsp),%rsi
  401f63:	00 
  401f64:	48 8d bc 24 30 80 00 	lea    0x8030(%rsp),%rdi
  401f6b:	00 
  401f6c:	e8 f8 f8 ff ff       	callq  401869 <rio_readlineb>
  401f71:	48 85 c0             	test   %rax,%rax
  401f74:	7f 73                	jg     401fe9 <submitr+0x669>
  401f76:	48 b8 45 72 72 6f 72 	movabs $0x43203a726f727245,%rax
  401f7d:	3a 20 43 
  401f80:	49 89 06             	mov    %rax,(%r14)
  401f83:	48 b8 6c 69 65 6e 74 	movabs $0x6e7520746e65696c,%rax
  401f8a:	20 75 6e 
  401f8d:	49 89 46 08          	mov    %rax,0x8(%r14)
  401f91:	48 b8 61 62 6c 65 20 	movabs $0x206f7420656c6261,%rax
  401f98:	74 6f 20 
  401f9b:	49 89 46 10          	mov    %rax,0x10(%r14)
  401f9f:	48 b8 72 65 61 64 20 	movabs $0x6174732064616572,%rax
  401fa6:	73 74 61 
  401fa9:	49 89 46 18          	mov    %rax,0x18(%r14)
  401fad:	48 b8 74 75 73 20 6d 	movabs $0x7373656d20737574,%rax
  401fb4:	65 73 73 
  401fb7:	49 89 46 20          	mov    %rax,0x20(%r14)
  401fbb:	48 b8 61 67 65 20 66 	movabs $0x6d6f726620656761,%rax
  401fc2:	72 6f 6d 
  401fc5:	49 89 46 28          	mov    %rax,0x28(%r14)
  401fc9:	48 b8 20 73 65 72 76 	movabs $0x72657672657320,%rax
  401fd0:	65 72 00 
  401fd3:	49 89 46 30          	mov    %rax,0x30(%r14)
  401fd7:	44 89 e7             	mov    %r12d,%edi
  401fda:	e8 a1 eb ff ff       	callq  400b80 <close@plt>
  401fdf:	b8 ff ff ff ff       	mov    $0xffffffff,%eax
  401fe4:	e9 28 01 00 00       	jmpq   402111 <submitr+0x791>
  401fe9:	48 8d b4 24 30 60 00 	lea    0x6030(%rsp),%rsi
  401ff0:	00 
  401ff1:	4c 89 f7             	mov    %r14,%rdi
  401ff4:	e8 37 eb ff ff       	callq  400b30 <strcpy@plt>
  401ff9:	44 89 e7             	mov    %r12d,%edi
  401ffc:	e8 7f eb ff ff       	callq  400b80 <close@plt>
  402001:	41 0f b6 06          	movzbl (%r14),%eax
  402005:	83 e8 4f             	sub    $0x4f,%eax
  402008:	75 0f                	jne    402019 <submitr+0x699>
  40200a:	41 0f b6 46 01       	movzbl 0x1(%r14),%eax
  40200f:	83 e8 4b             	sub    $0x4b,%eax
  402012:	75 05                	jne    402019 <submitr+0x699>
  402014:	41 0f b6 46 02       	movzbl 0x2(%r14),%eax
  402019:	85 c0                	test   %eax,%eax
  40201b:	0f 95 c0             	setne  %al
  40201e:	0f b6 c0             	movzbl %al,%eax
  402021:	f7 d8                	neg    %eax
  402023:	e9 e9 00 00 00       	jmpq   402111 <submitr+0x791>
  402028:	4c 8d 8c 24 30 40 00 	lea    0x4030(%rsp),%r9
  40202f:	00 
  402030:	4d 89 f8             	mov    %r15,%r8
  402033:	48 8b 4c 24 08       	mov    0x8(%rsp),%rcx
  402038:	48 8b 14 24          	mov    (%rsp),%rdx
  40203c:	be 08 2c 40 00       	mov    $0x402c08,%esi
  402041:	48 8d bc 24 30 60 00 	lea    0x6030(%rsp),%rdi
  402048:	00 
  402049:	b8 00 00 00 00       	mov    $0x0,%eax
  40204e:	e8 1d ec ff ff       	callq  400c70 <sprintf@plt>
  402053:	48 8d bc 24 30 60 00 	lea    0x6030(%rsp),%rdi
  40205a:	00 
  40205b:	b8 00 00 00 00       	mov    $0x0,%eax
  402060:	48 c7 c1 ff ff ff ff 	mov    $0xffffffffffffffff,%rcx
  402067:	f2 ae                	repnz scas %es:(%rdi),%al
  402069:	48 f7 d1             	not    %rcx
  40206c:	48 83 e9 01          	sub    $0x1,%rcx
  402070:	49 89 cd             	mov    %rcx,%r13
  402073:	0f 84 0d fd ff ff    	je     401d86 <submitr+0x406>
  402079:	48 89 cb             	mov    %rcx,%rbx
  40207c:	48 8d ac 24 30 60 00 	lea    0x6030(%rsp),%rbp
  402083:	00 
  402084:	e9 6f fc ff ff       	jmpq   401cf8 <submitr+0x378>
  402089:	48 b8 45 72 72 6f 72 	movabs $0x52203a726f727245,%rax
  402090:	3a 20 52 
  402093:	49 89 06             	mov    %rax,(%r14)
  402096:	48 b8 65 73 75 6c 74 	movabs $0x747320746c757365,%rax
  40209d:	20 73 74 
  4020a0:	49 89 46 08          	mov    %rax,0x8(%r14)
  4020a4:	48 b8 72 69 6e 67 20 	movabs $0x6e6f6320676e6972,%rax
  4020ab:	63 6f 6e 
  4020ae:	49 89 46 10          	mov    %rax,0x10(%r14)
  4020b2:	48 b8 74 61 69 6e 73 	movabs $0x6e6120736e696174,%rax
  4020b9:	20 61 6e 
  4020bc:	49 89 46 18          	mov    %rax,0x18(%r14)
  4020c0:	48 b8 20 69 6c 6c 65 	movabs $0x6c6167656c6c6920,%rax
  4020c7:	67 61 6c 
  4020ca:	49 89 46 20          	mov    %rax,0x20(%r14)
  4020ce:	48 b8 20 6f 72 20 75 	movabs $0x72706e7520726f20,%rax
  4020d5:	6e 70 72 
  4020d8:	49 89 46 28          	mov    %rax,0x28(%r14)
  4020dc:	48 b8 69 6e 74 61 62 	movabs $0x20656c6261746e69,%rax
  4020e3:	6c 65 20 
  4020e6:	49 89 46 30          	mov    %rax,0x30(%r14)
  4020ea:	48 b8 63 68 61 72 61 	movabs $0x6574636172616863,%rax
  4020f1:	63 74 65 
  4020f4:	49 89 46 38          	mov    %rax,0x38(%r14)
  4020f8:	66 41 c7 46 40 72 2e 	movw   $0x2e72,0x40(%r14)
  4020ff:	41 c6 46 42 00       	movb   $0x0,0x42(%r14)
  402104:	44 89 e7             	mov    %r12d,%edi
  402107:	e8 74 ea ff ff       	callq  400b80 <close@plt>
  40210c:	b8 ff ff ff ff       	mov    $0xffffffff,%eax
  402111:	48 81 c4 58 a0 00 00 	add    $0xa058,%rsp
  402118:	5b                   	pop    %rbx
  402119:	5d                   	pop    %rbp
  40211a:	41 5c                	pop    %r12
  40211c:	41 5d                	pop    %r13
  40211e:	41 5e                	pop    %r14
  402120:	41 5f                	pop    %r15
  402122:	c3                   	retq   

0000000000402123 <init_timeout>:
  402123:	53                   	push   %rbx
  402124:	89 fb                	mov    %edi,%ebx
  402126:	85 ff                	test   %edi,%edi
  402128:	74 1e                	je     402148 <init_timeout+0x25>
  40212a:	be 40 18 40 00       	mov    $0x401840,%esi
  40212f:	bf 0e 00 00 00       	mov    $0xe,%edi
  402134:	e8 87 ea ff ff       	callq  400bc0 <signal@plt>
  402139:	85 db                	test   %ebx,%ebx
  40213b:	bf 00 00 00 00       	mov    $0x0,%edi
  402140:	0f 49 fb             	cmovns %ebx,%edi
  402143:	e8 28 ea ff ff       	callq  400b70 <alarm@plt>
  402148:	5b                   	pop    %rbx
  402149:	c3                   	retq   

000000000040214a <init_driver>:
  40214a:	55                   	push   %rbp
  40214b:	53                   	push   %rbx
  40214c:	48 83 ec 18          	sub    $0x18,%rsp
  402150:	48 89 fd             	mov    %rdi,%rbp
  402153:	be 01 00 00 00       	mov    $0x1,%esi
  402158:	bf 0d 00 00 00       	mov    $0xd,%edi
  40215d:	e8 5e ea ff ff       	callq  400bc0 <signal@plt>
  402162:	be 01 00 00 00       	mov    $0x1,%esi
  402167:	bf 1d 00 00 00       	mov    $0x1d,%edi
  40216c:	e8 4f ea ff ff       	callq  400bc0 <signal@plt>
  402171:	be 01 00 00 00       	mov    $0x1,%esi
  402176:	bf 1d 00 00 00       	mov    $0x1d,%edi
  40217b:	e8 40 ea ff ff       	callq  400bc0 <signal@plt>
  402180:	ba 00 00 00 00       	mov    $0x0,%edx
  402185:	be 01 00 00 00       	mov    $0x1,%esi
  40218a:	bf 02 00 00 00       	mov    $0x2,%edi
  40218f:	e8 2c eb ff ff       	callq  400cc0 <socket@plt>
  402194:	89 c3                	mov    %eax,%ebx
  402196:	85 c0                	test   %eax,%eax
  402198:	79 4f                	jns    4021e9 <init_driver+0x9f>
  40219a:	48 b8 45 72 72 6f 72 	movabs $0x43203a726f727245,%rax
  4021a1:	3a 20 43 
  4021a4:	48 89 45 00          	mov    %rax,0x0(%rbp)
  4021a8:	48 b8 6c 69 65 6e 74 	movabs $0x6e7520746e65696c,%rax
  4021af:	20 75 6e 
  4021b2:	48 89 45 08          	mov    %rax,0x8(%rbp)
  4021b6:	48 b8 61 62 6c 65 20 	movabs $0x206f7420656c6261,%rax
  4021bd:	74 6f 20 
  4021c0:	48 89 45 10          	mov    %rax,0x10(%rbp)
  4021c4:	48 b8 63 72 65 61 74 	movabs $0x7320657461657263,%rax
  4021cb:	65 20 73 
  4021ce:	48 89 45 18          	mov    %rax,0x18(%rbp)
  4021d2:	c7 45 20 6f 63 6b 65 	movl   $0x656b636f,0x20(%rbp)
  4021d9:	66 c7 45 24 74 00    	movw   $0x74,0x24(%rbp)
  4021df:	b8 ff ff ff ff       	mov    $0xffffffff,%eax
  4021e4:	e9 f8 00 00 00       	jmpq   4022e1 <init_driver+0x197>
  4021e9:	bf 97 2b 40 00       	mov    $0x402b97,%edi
  4021ee:	e8 dd e9 ff ff       	callq  400bd0 <gethostbyname@plt>
  4021f3:	48 85 c0             	test   %rax,%rax
  4021f6:	75 68                	jne    402260 <init_driver+0x116>
  4021f8:	48 b8 45 72 72 6f 72 	movabs $0x44203a726f727245,%rax
  4021ff:	3a 20 44 
  402202:	48 89 45 00          	mov    %rax,0x0(%rbp)
  402206:	48 b8 4e 53 20 69 73 	movabs $0x6e7520736920534e,%rax
  40220d:	20 75 6e 
  402210:	48 89 45 08          	mov    %rax,0x8(%rbp)
  402214:	48 b8 61 62 6c 65 20 	movabs $0x206f7420656c6261,%rax
  40221b:	74 6f 20 
  40221e:	48 89 45 10          	mov    %rax,0x10(%rbp)
  402222:	48 b8 72 65 73 6f 6c 	movabs $0x2065766c6f736572,%rax
  402229:	76 65 20 
  40222c:	48 89 45 18          	mov    %rax,0x18(%rbp)
  402230:	48 b8 73 65 72 76 65 	movabs $0x6120726576726573,%rax
  402237:	72 20 61 
  40223a:	48 89 45 20          	mov    %rax,0x20(%rbp)
  40223e:	c7 45 28 64 64 72 65 	movl   $0x65726464,0x28(%rbp)
  402245:	66 c7 45 2c 73 73    	movw   $0x7373,0x2c(%rbp)
  40224b:	c6 45 2e 00          	movb   $0x0,0x2e(%rbp)
  40224f:	89 df                	mov    %ebx,%edi
  402251:	e8 2a e9 ff ff       	callq  400b80 <close@plt>
  402256:	b8 ff ff ff ff       	mov    $0xffffffff,%eax
  40225b:	e9 81 00 00 00       	jmpq   4022e1 <init_driver+0x197>
  402260:	48 c7 04 24 00 00 00 	movq   $0x0,(%rsp)
  402267:	00 
  402268:	48 c7 44 24 08 00 00 	movq   $0x0,0x8(%rsp)
  40226f:	00 00 
  402271:	66 c7 04 24 02 00    	movw   $0x2,(%rsp)
  402277:	48 63 50 14          	movslq 0x14(%rax),%rdx
  40227b:	48 8d 74 24 04       	lea    0x4(%rsp),%rsi
  402280:	48 8b 40 18          	mov    0x18(%rax),%rax
  402284:	48 8b 38             	mov    (%rax),%rdi
  402287:	e8 b4 e9 ff ff       	callq  400c40 <bcopy@plt>
  40228c:	66 c7 44 24 02 3b 6e 	movw   $0x6e3b,0x2(%rsp)
  402293:	ba 10 00 00 00       	mov    $0x10,%edx
  402298:	48 89 e6             	mov    %rsp,%rsi
  40229b:	89 df                	mov    %ebx,%edi
  40229d:	e8 ee e9 ff ff       	callq  400c90 <connect@plt>
  4022a2:	85 c0                	test   %eax,%eax
  4022a4:	79 25                	jns    4022cb <init_driver+0x181>
  4022a6:	ba 97 2b 40 00       	mov    $0x402b97,%edx
  4022ab:	be 58 2c 40 00       	mov    $0x402c58,%esi
  4022b0:	48 89 ef             	mov    %rbp,%rdi
  4022b3:	b8 00 00 00 00       	mov    $0x0,%eax
  4022b8:	e8 b3 e9 ff ff       	callq  400c70 <sprintf@plt>
  4022bd:	89 df                	mov    %ebx,%edi
  4022bf:	e8 bc e8 ff ff       	callq  400b80 <close@plt>
  4022c4:	b8 ff ff ff ff       	mov    $0xffffffff,%eax
  4022c9:	eb 16                	jmp    4022e1 <init_driver+0x197>
  4022cb:	89 df                	mov    %ebx,%edi
  4022cd:	e8 ae e8 ff ff       	callq  400b80 <close@plt>
  4022d2:	66 c7 45 00 4f 4b    	movw   $0x4b4f,0x0(%rbp)
  4022d8:	c6 45 02 00          	movb   $0x0,0x2(%rbp)
  4022dc:	b8 00 00 00 00       	mov    $0x0,%eax
  4022e1:	48 83 c4 18          	add    $0x18,%rsp
  4022e5:	5b                   	pop    %rbx
  4022e6:	5d                   	pop    %rbp
  4022e7:	c3                   	retq   

00000000004022e8 <driver_post>:
  4022e8:	53                   	push   %rbx
  4022e9:	48 83 ec 10          	sub    $0x10,%rsp
  4022ed:	48 89 cb             	mov    %rcx,%rbx
  4022f0:	85 d2                	test   %edx,%edx
  4022f2:	74 1f                	je     402313 <driver_post+0x2b>
  4022f4:	bf 98 2c 40 00       	mov    $0x402c98,%edi
  4022f9:	b8 00 00 00 00       	mov    $0x0,%eax
  4022fe:	e8 5d e8 ff ff       	callq  400b60 <printf@plt>
  402303:	66 c7 03 4f 4b       	movw   $0x4b4f,(%rbx)
  402308:	c6 43 02 00          	movb   $0x0,0x2(%rbx)
  40230c:	b8 00 00 00 00       	mov    $0x0,%eax
  402311:	eb 3e                	jmp    402351 <driver_post+0x69>
  402313:	48 85 ff             	test   %rdi,%rdi
  402316:	74 2b                	je     402343 <driver_post+0x5b>
  402318:	80 3f 00             	cmpb   $0x0,(%rdi)
  40231b:	74 26                	je     402343 <driver_post+0x5b>
  40231d:	48 89 0c 24          	mov    %rcx,(%rsp)
  402321:	49 89 f1             	mov    %rsi,%r9
  402324:	41 b8 af 2c 40 00    	mov    $0x402caf,%r8d
  40232a:	48 89 f9             	mov    %rdi,%rcx
  40232d:	ba b3 2c 40 00       	mov    $0x402cb3,%edx
  402332:	be 6e 3b 00 00       	mov    $0x3b6e,%esi
  402337:	bf 97 2b 40 00       	mov    $0x402b97,%edi
  40233c:	e8 3f f6 ff ff       	callq  401980 <submitr>
  402341:	eb 0e                	jmp    402351 <driver_post+0x69>
  402343:	66 c7 03 4f 4b       	movw   $0x4b4f,(%rbx)
  402348:	c6 43 02 00          	movb   $0x0,0x2(%rbx)
  40234c:	b8 00 00 00 00       	mov    $0x0,%eax
  402351:	48 83 c4 10          	add    $0x10,%rsp
  402355:	5b                   	pop    %rbx
  402356:	c3                   	retq   
  402357:	66 0f 1f 84 00 00 00 	nopw   0x0(%rax,%rax,1)
  40235e:	00 00 

0000000000402360 <__libc_csu_init>:
  402360:	41 57                	push   %r15
  402362:	41 89 ff             	mov    %edi,%r15d
  402365:	41 56                	push   %r14
  402367:	49 89 f6             	mov    %rsi,%r14
  40236a:	41 55                	push   %r13
  40236c:	49 89 d5             	mov    %rdx,%r13
  40236f:	41 54                	push   %r12
  402371:	4c 8d 25 98 1a 20 00 	lea    0x201a98(%rip),%r12        # 603e10 <__frame_dummy_init_array_entry>
  402378:	55                   	push   %rbp
  402379:	48 8d 2d 98 1a 20 00 	lea    0x201a98(%rip),%rbp        # 603e18 <__init_array_end>
  402380:	53                   	push   %rbx
  402381:	4c 29 e5             	sub    %r12,%rbp
  402384:	31 db                	xor    %ebx,%ebx
  402386:	48 c1 fd 03          	sar    $0x3,%rbp
  40238a:	48 83 ec 08          	sub    $0x8,%rsp
  40238e:	e8 3d e7 ff ff       	callq  400ad0 <_init>
  402393:	48 85 ed             	test   %rbp,%rbp
  402396:	74 1e                	je     4023b6 <__libc_csu_init+0x56>
  402398:	0f 1f 84 00 00 00 00 	nopl   0x0(%rax,%rax,1)
  40239f:	00 
  4023a0:	4c 89 ea             	mov    %r13,%rdx
  4023a3:	4c 89 f6             	mov    %r14,%rsi
  4023a6:	44 89 ff             	mov    %r15d,%edi
  4023a9:	41 ff 14 dc          	callq  *(%r12,%rbx,8)
  4023ad:	48 83 c3 01          	add    $0x1,%rbx
  4023b1:	48 39 eb             	cmp    %rbp,%rbx
  4023b4:	75 ea                	jne    4023a0 <__libc_csu_init+0x40>
  4023b6:	48 83 c4 08          	add    $0x8,%rsp
  4023ba:	5b                   	pop    %rbx
  4023bb:	5d                   	pop    %rbp
  4023bc:	41 5c                	pop    %r12
  4023be:	41 5d                	pop    %r13
  4023c0:	41 5e                	pop    %r14
  4023c2:	41 5f                	pop    %r15
  4023c4:	c3                   	retq   
  4023c5:	66 66 2e 0f 1f 84 00 	data32 nopw %cs:0x0(%rax,%rax,1)
  4023cc:	00 00 00 00 

00000000004023d0 <__libc_csu_fini>:
  4023d0:	f3 c3                	repz retq 
  4023d2:	66 90                	xchg   %ax,%ax

Disassembly of section .fini:

00000000004023d4 <_fini>:
  4023d4:	48 83 ec 08          	sub    $0x8,%rsp
  4023d8:	48 83 c4 08          	add    $0x8,%rsp
  4023dc:	c3                   	retq   
